 UE4Editor-ECSLearning-1905

 Timestamp is 5d1da860 (Thu Jul  4 15:18:56 2019)

 Preferred load address is 0000000180000000

 Start         Length     Name                   Class
 0001:00000000 00001070H .text$di                CODE
 0001:00001070 00002140H .text$mn                CODE
 0001:000031b0 00000020H .text$mn$00             CODE
 0001:000031d0 000000fcH .text$x                 CODE
 0002:00000000 00000bc8H .idata$5                DATA
 0002:00000bc8 00000010H .00cfg                  DATA
 0002:00000bd8 00000008H .CRT$XCA                DATA
 0002:00000be0 00000658H .CRT$XCU                DATA
 0002:00001238 00000008H .CRT$XCZ                DATA
 0002:00001240 00000008H .CRT$XIA                DATA
 0002:00001248 00000008H .CRT$XIC                DATA
 0002:00001250 00000008H .CRT$XIZ                DATA
 0002:00001258 00000008H .CRT$XPA                DATA
 0002:00001260 00000008H .CRT$XPZ                DATA
 0002:00001268 00000008H .CRT$XTA                DATA
 0002:00001270 00000010H .CRT$XTZ                DATA
 0002:00001278 00000000H .gfids$y                DATA
 0002:00001280 00005380H .rdata                  DATA
 0002:00006600 000002c8H .rdata$zzzdbg           DATA
 0002:000068c8 00000008H .rtc$IAA                DATA
 0002:000068d0 00000008H .rtc$IZZ                DATA
 0002:000068d8 00000008H .rtc$TAA                DATA
 0002:000068e0 00000008H .rtc$TZZ                DATA
 0002:000068e8 00000438H .xdata                  DATA
 0002:00006d20 000004bcH .edata                  DATA
 0002:000071dc 00000078H .idata$2                DATA
 0002:00007254 00000014H .idata$3                DATA
 0002:00007268 00000bc8H .idata$4                DATA
 0002:00007e30 00004be8H .idata$6                DATA
 0003:00000000 000000d0H .data                   DATA
 0003:000000d0 00000d38H .bss                    DATA
 0004:00000000 0000033cH .pdata                  DATA
 0005:00000000 00000300H .rsrc$01                DATA
 0005:00000300 00011c00H .rsrc$02                DATA

  Address         Publics by Value              Rva+Base               Lib:Object

 0000:00000000       __guard_iat_table          0000000000000000     <absolute>
 0000:00000000       __dynamic_value_reloc_table 0000000000000000     <absolute>
 0000:00000000       __guard_longjmp_table      0000000000000000     <absolute>
 0000:00000000       __guard_iat_count          0000000000000000     <absolute>
 0000:00000000       __guard_fids_table         0000000000000000     <absolute>
 0000:00000000       ___safe_se_handler_table   0000000000000000     <absolute>
 0000:00000000       __enclave_config           0000000000000000     <absolute>
 0000:00000000       __hybrid_code_map_count    0000000000000000     <absolute>
 0000:00000000       __guard_fids_count         0000000000000000     <absolute>
 0000:00000000       __volatile_metadata        0000000000000000     <absolute>
 0000:00000000       __guard_longjmp_count      0000000000000000     <absolute>
 0000:00000000       ___safe_se_handler_count   0000000000000000     <absolute>
 0000:00000000       __hybrid_auxiliary_iat     0000000000000000     <absolute>
 0000:00000000       __hybrid_code_map          0000000000000000     <absolute>
 0000:00000100       __guard_flags              0000000000000100     <absolute>
 0000:00000000       __ImageBase                0000000180000000     <linker-defined>
 0001:00001070       ??1IModuleInterface@@UEAA@XZ 0000000180002070 f i ECSLearning.cpp.obj
 0001:00001080       ??2@YAPEAX_K@Z             0000000180002080 f   ECSLearning.cpp.obj
 0001:00001090       ??2@YAPEAX_KAEBUnothrow_t@std@@@Z 0000000180002090 f   ECSLearning.cpp.obj
 0001:000010a0       ??3@YAXPEAX@Z              00000001800020a0 f   ECSLearning.cpp.obj
 0001:000010c0       ??3@YAXPEAXAEBUnothrow_t@std@@@Z 00000001800020c0 f   ECSLearning.cpp.obj
 0001:000010d0       ??3@YAXPEAX_K@Z            00000001800020d0 f   ECSLearning.cpp.obj
 0001:000010f0       ??3@YAXPEAX_KAEBUnothrow_t@std@@@Z 00000001800020f0 f   ECSLearning.cpp.obj
 0001:00001100       ??_GFDefaultGameModuleImpl@@UEAAPEAXI@Z 0000000180002100 f i ECSLearning.cpp.obj
 0001:00001100       ??_EFDefaultGameModuleImpl@@UEAAPEAXI@Z 0000000180002100 f i ECSLearning.cpp.obj
 0001:00001140       ??_GFDefaultModuleImpl@@UEAAPEAXI@Z 0000000180002140 f i ECSLearning.cpp.obj
 0001:00001140       ??_EFDefaultModuleImpl@@UEAAPEAXI@Z 0000000180002140 f i ECSLearning.cpp.obj
 0001:00001180       ??_GIModuleInterface@@UEAAPEAXI@Z 0000000180002180 f i ECSLearning.cpp.obj
 0001:00001180       ??_EIModuleInterface@@UEAAPEAXI@Z 0000000180002180 f i ECSLearning.cpp.obj
 0001:000011c0       ??_H@YAXPEAX_K1P6APEAX0@Z@Z 00000001800021c0 f i ECSLearning.cpp.obj
 0001:00001210       ??_U@YAPEAX_K@Z            0000000180002210 f   ECSLearning.cpp.obj
 0001:00001220       ??_U@YAPEAX_KAEBUnothrow_t@std@@@Z 0000000180002220 f   ECSLearning.cpp.obj
 0001:00001230       ??_V@YAXPEAX@Z             0000000180002230 f   ECSLearning.cpp.obj
 0001:00001250       ??_V@YAXPEAXAEBUnothrow_t@std@@@Z 0000000180002250 f   ECSLearning.cpp.obj
 0001:00001260       ??_V@YAXPEAX_K@Z           0000000180002260 f   ECSLearning.cpp.obj
 0001:00001280       ??_V@YAXPEAX_KAEBUnothrow_t@std@@@Z 0000000180002280 f   ECSLearning.cpp.obj
 0001:00001290       ?IsGameModule@FDefaultGameModuleImpl@@EEBA_NXZ 0000000180002290 f i ECSLearning.cpp.obj
 0001:000012a0       ?IsGameModule@IModuleInterface@@UEBA_NXZ 00000001800022a0 f i ECSLearning.cpp.obj
 0001:000012b0       ?PostLoadCallback@IModuleInterface@@UEAAXXZ 00000001800022b0 f i ECSLearning.cpp.obj
 0001:000012c0       ?PreUnloadCallback@IModuleInterface@@UEAAXXZ 00000001800022c0 f i ECSLearning.cpp.obj
 0001:000012d0       ?ShutdownModule@IModuleInterface@@UEAAXXZ 00000001800022d0 f i ECSLearning.cpp.obj
 0001:000012e0       ?StartupModule@IModuleInterface@@UEAAXXZ 00000001800022e0 f i ECSLearning.cpp.obj
 0001:000012f0       ?SupportsAutomaticShutdown@IModuleInterface@@UEAA_NXZ 00000001800022f0 f i ECSLearning.cpp.obj
 0001:00001300       ?SupportsDynamicReloading@IModuleInterface@@UEAA_NXZ 0000000180002300 f i ECSLearning.cpp.obj
 0001:00001310       InitializeModule           0000000180002310 f   ECSLearning.cpp.obj
 0001:00001340       ??0AMyCharacter@@QEAA@XZ   0000000180002340 f   MyCharacter.cpp.obj
 0001:00001380       ??0FVector@@QEAA@XZ        0000000180002380 f i MyCharacter.cpp.obj
 0001:00001390       ??1AMyCharacter@@UEAA@XZ   0000000180002390 f i MyCharacter.cpp.obj
 0001:000013a0       ??2AMyCharacter@@SAPEAX_KPEAW4EInternal@@@Z 00000001800023a0 f i MyCharacter.cpp.obj
 0001:000013b0       ??2AMyCharacter@@SAPEAX_KW4EInternal@@PEAVUObject@@VFName@@W4EObjectFlags@@@Z 00000001800023b0 f i MyCharacter.cpp.obj
 0001:00001400       ??_EAMyCharacter@@UEAAPEAXI@Z 0000000180002400 f i MyCharacter.cpp.obj
 0001:00001498       ??_EAMyCharacter@@WDPA@EAAPEAXI@Z 0000000180002498 f i MyCharacter.cpp.obj
 0001:000014b0       ??_GAMyCharacter@@UEAAPEAXI@Z 00000001800024b0 f i MyCharacter.cpp.obj
 0001:000014f0       ??__G@YAXPEAX0_K1P6APEAX00@Z@Z 00000001800024f0 f i MyCharacter.cpp.obj
 0001:00001550       ?BeginPlay@AMyCharacter@@MEAAXXZ 0000000180002550 f   MyCharacter.cpp.obj
 0001:00001560       ?GetMoveGoalOffset@INavAgentInterface@@UEBA?AUFVector@@PEAVAActor@@@Z 0000000180002560 f i MyCharacter.cpp.obj
 0001:00001580       ?GetMoveGoalOffset@INavAgentInterface@@UEBA?AUFVector@@PEBVAActor@@@Z 0000000180002580 f i MyCharacter.cpp.obj
 0001:000015a0       ?GetMoveGoalReachTest@INavAgentInterface@@UEBAXPEAVAActor@@AEBUFVector@@AEAU3@AEAM3@Z 00000001800025a0 f i MyCharacter.cpp.obj
 0001:000015b0       ?GetPathFollowingAgent@INavAgentInterface@@UEBAPEAVIPathFollowingAgentInterface@@XZ 00000001800025b0 f i MyCharacter.cpp.obj
 0001:000015c0       ?IsFollowingAPath@INavAgentInterface@@UEBA_NXZ 00000001800025c0 f i MyCharacter.cpp.obj
 0001:000015d0       ?SetupPlayerInputComponent@AMyCharacter@@UEAAXPEAVUInputComponent@@@Z 00000001800025d0 f   MyCharacter.cpp.obj
 0001:000015e0       ?ShouldPostponePathUpdates@INavAgentInterface@@UEBA_NXZ 00000001800025e0 f i MyCharacter.cpp.obj
 0001:000015f0       ?StaticClass@AMyCharacter@@SAPEAVUClass@@XZ 00000001800025f0 f i MyCharacter.cpp.obj
 0001:00001600       ?StaticClassCastFlags@AMyCharacter@@SA?AW4EClassCastFlags@@XZ 0000000180002600 f i MyCharacter.cpp.obj
 0001:00001610       ?StaticPackage@AMyCharacter@@SAPEB_WXZ 0000000180002610 f i MyCharacter.cpp.obj
 0001:00001620       ?Tick@AMyCharacter@@UEAAXM@Z 0000000180002620 f   MyCharacter.cpp.obj
 0001:00001630       ?__DefaultConstructor@AMyCharacter@@SAXAEBVFObjectInitializer@@@Z 0000000180002630 f i MyCharacter.cpp.obj
 0001:00001680       ?__VTableCtorCaller@AMyCharacter@@SAPEAVUObject@@AEAVFVTableHelper@@@Z 0000000180002680 f i MyCharacter.cpp.obj
 0001:00001710       ?EmptyLinkFunctionForGeneratedCodeECSLearning_init@@YAXXZ 0000000180002710 f   ECSLearning.init.gen.cpp.obj
 0001:00001720       ?Z_Construct_UPackage__Script_ECSLearning@@YAPEAVUPackage@@XZ 0000000180002720 f   ECSLearning.init.gen.cpp.obj
 0001:00001750       ?Register@?$TClassCompiledInDefer@VAMyCharacter@@@@UEBAPEAVUClass@@XZ 0000000180002750 f i MyCharacter.gen.cpp.obj
 0001:00001790       ?ClassPackage@?$TClassCompiledInDefer@VAMyCharacter@@@@UEBAPEB_WXZ 0000000180002790 f i MyCharacter.gen.cpp.obj
 0001:000017a0       ??$InternalConstructor@VAMyCharacter@@@@YAXAEBVFObjectInitializer@@@Z 00000001800027a0 f i MyCharacter.gen.cpp.obj
 0001:000017b0       ??$InternalVTableHelperCtorCaller@VAMyCharacter@@@@YAPEAVUObject@@AEAVFVTableHelper@@@Z 00000001800027b0 f i MyCharacter.gen.cpp.obj
 0001:000017c0       ??0AMyCharacter@@QEAA@AEAVFVTableHelper@@@Z 00000001800027c0 f   MyCharacter.gen.cpp.obj
 0001:000017f0       ?EmptyLinkFunctionForGeneratedCodeMyCharacter@@YAXXZ 00000001800027f0 f   MyCharacter.gen.cpp.obj
 0001:00001800       ?GetPrivateStaticClass@AMyCharacter@@CAPEAVUClass@@XZ 0000000180002800 f   MyCharacter.gen.cpp.obj
 0001:000018b0       ?StaticRegisterNativesAMyCharacter@AMyCharacter@@CAXXZ 00000001800028b0 f   MyCharacter.gen.cpp.obj
 0001:000018c0       ?Z_Construct_UClass_AMyCharacter@@YAPEAVUClass@@XZ 00000001800028c0 f   MyCharacter.gen.cpp.obj
 0001:000018f0       ?Z_Construct_UClass_AMyCharacter_NoRegister@@YAPEAVUClass@@XZ 00000001800028f0 f   MyCharacter.gen.cpp.obj
 0001:000018f5       ?Tick@AActor@@UEAAXM@Z     00000001800028f5 f   UE4Editor-Engine:UE4Editor-Engine.dll
 0001:000018fb       ??0ACharacter@@QEAA@AEBVFObjectInitializer@@@Z 00000001800028fb f   UE4Editor-Engine:UE4Editor-Engine.dll
 0001:00001901       ?BeginPlay@ACharacter@@UEAAXXZ 0000000180002901 f   UE4Editor-Engine:UE4Editor-Engine.dll
 0001:00001907       ?SetupPlayerInputComponent@ACharacter@@UEAAXPEAVUInputComponent@@@Z 0000000180002907 f   UE4Editor-Engine:UE4Editor-Engine.dll
 0001:0000190d       ??1ACharacter@@UEAA@XZ     000000018000290d f   UE4Editor-Engine:UE4Editor-Engine.dll
 0001:00001913       ?AddControllerPitchInput@APawn@@UEAAXM@Z 0000000180002913 f   UE4Editor-Engine:UE4Editor-Engine.dll
 0001:00001919       ?AddControllerRollInput@APawn@@UEAAXM@Z 0000000180002919 f   UE4Editor-Engine:UE4Editor-Engine.dll
 0001:0000191f       ?AddControllerYawInput@APawn@@UEAAXM@Z 000000018000291f f   UE4Editor-Engine:UE4Editor-Engine.dll
 0001:00001925       ?AddMovementInput@APawn@@UEAAXUFVector@@M_N@Z 0000000180002925 f   UE4Editor-Engine:UE4Editor-Engine.dll
 0001:0000192b       ?AddTickPrerequisiteActor@AActor@@UEAAXPEAV1@@Z 000000018000292b f   UE4Editor-Engine:UE4Editor-Engine.dll
 0001:00001931       ?AddTickPrerequisiteComponent@AActor@@UEAAXPEAVUActorComponent@@@Z 0000000180002931 f   UE4Editor-Engine:UE4Editor-Engine.dll
 0001:00001937       ?ApplyDamageMomentum@ACharacter@@UEAAXMAEBUFDamageEvent@@PEAVAPawn@@PEAVAActor@@@Z 0000000180002937 f   UE4Editor-Engine:UE4Editor-Engine.dll
 0001:0000193d       ?ApplyWorldOffset@AActor@@UEAAXAEBUFVector@@_N@Z 000000018000293d f   UE4Editor-Engine:UE4Editor-Engine.dll
 0001:00001943       ?BaseChange@ACharacter@@MEAAXXZ 0000000180002943 f   UE4Editor-Engine:UE4Editor-Engine.dll
 0001:00001949       ?BecomeViewTarget@APawn@@UEAAXPEAVAPlayerController@@@Z 0000000180002949 f   UE4Editor-Engine:UE4Editor-Engine.dll
 0001:0000194f       ?BeginDestroy@AActor@@UEAAXXZ 000000018000294f f   UE4Editor-Engine:UE4Editor-Engine.dll
 0001:00001955       ?CacheInitialMeshOffset@ACharacter@@UEAAXUFVector@@UFRotator@@@Z 0000000180002955 f   UE4Editor-Engine:UE4Editor-Engine.dll
 0001:0000195b       ?CalcCamera@AActor@@UEAAXMAEAUFMinimalViewInfo@@@Z 000000018000295b f   UE4Editor-Engine:UE4Editor-Engine.dll
 0001:00001961       ?CalculateComponentsBoundingBoxInLocalSpace@AActor@@UEBA?AUFBox@@_N@Z 0000000180002961 f   UE4Editor-Engine:UE4Editor-Engine.dll
 0001:00001967       ?CallRemoteFunction@AActor@@UEAA_NPEAVUFunction@@PEAXPEAUFOutParmRec@@PEAUFFrame@@@Z 0000000180002967 f   UE4Editor-Engine:UE4Editor-Engine.dll
 0001:0000196d       ?CanBeBaseForCharacter@APawn@@UEBA_NPEAV1@@Z 000000018000296d f   UE4Editor-Engine:UE4Editor-Engine.dll
 0001:00001973       ?CanBeInCluster@AActor@@UEBA_NXZ 0000000180002973 f   UE4Editor-Engine:UE4Editor-Engine.dll
 0001:00001979       ?CanCrouch@ACharacter@@UEAA_NXZ 0000000180002979 f   UE4Editor-Engine:UE4Editor-Engine.dll
 0001:0000197f       ?CanDeleteSelectedActor@AActor@@UEBA_NAEAVFText@@@Z 000000018000297f f   UE4Editor-Engine:UE4Editor-Engine.dll
 0001:00001985       ?CanJumpInternal_Implementation@ACharacter@@MEBA_NXZ 0000000180002985 f   UE4Editor-Engine:UE4Editor-Engine.dll
 0001:0000198b       ?CheckDefaultSubobjectsInternal@AActor@@UEBA_NXZ 000000018000298b f   UE4Editor-Engine:UE4Editor-Engine.dll
 0001:00001991       ?CheckForDeprecated@AActor@@UEAAXXZ 0000000180002991 f   UE4Editor-Engine:UE4Editor-Engine.dll
 0001:00001997       ?CheckForErrors@AActor@@UEAAXXZ 0000000180002997 f   UE4Editor-Engine:UE4Editor-Engine.dll
 0001:0000199d       ?CheckJumpInput@ACharacter@@UEAAXM@Z 000000018000299d f   UE4Editor-Engine:UE4Editor-Engine.dll
 0001:000019a3       ?CheckStillInWorld@AActor@@UEAA_NXZ 00000001800029a3 f   UE4Editor-Engine:UE4Editor-Engine.dll
 0001:000019a9       ?ClearCrossLevelReferences@ACharacter@@UEAAXXZ 00000001800029a9 f   UE4Editor-Engine:UE4Editor-Engine.dll
 0001:000019af       ?ClearJumpInput@ACharacter@@UEAAXM@Z 00000001800029af f   UE4Editor-Engine:UE4Editor-Engine.dll
 0001:000019b5       ?ClientCheatFly_Implementation@ACharacter@@UEAAXXZ 00000001800029b5 f   UE4Editor-Engine:UE4Editor-Engine.dll
 0001:000019bb       ?ClientCheatGhost_Implementation@ACharacter@@UEAAXXZ 00000001800029bb f   UE4Editor-Engine:UE4Editor-Engine.dll
 0001:000019c1       ?ClientCheatWalk_Implementation@ACharacter@@UEAAXXZ 00000001800029c1 f   UE4Editor-Engine:UE4Editor-Engine.dll
 0001:000019c7       ?ConsumeMovementInputVector@APawn@@UEAA?AUFVector@@XZ 00000001800029c7 f   UE4Editor-Engine:UE4Editor-Engine.dll
 0001:000019cd       ?CreatePlayerInputComponent@APawn@@MEAAPEAVUInputComponent@@XZ 00000001800029cd f   UE4Editor-Engine:UE4Editor-Engine.dll
 0001:000019d3       ?Crouch@ACharacter@@UEAAX_N@Z 00000001800029d3 f   UE4Editor-Engine:UE4Editor-Engine.dll
 0001:000019d9       ?DestroyNetworkActorHandled@AActor@@UEAA_NXZ 00000001800029d9 f   UE4Editor-Engine:UE4Editor-Engine.dll
 0001:000019df       ?DestroyPlayerInputComponent@APawn@@MEAAXXZ 00000001800029df f   UE4Editor-Engine:UE4Editor-Engine.dll
 0001:000019e5       ?Destroyed@APawn@@UEAAXXZ  00000001800029e5 f   UE4Editor-Engine:UE4Editor-Engine.dll
 0001:000019eb       ?DetachFromControllerPendingDestroy@APawn@@UEAAXXZ 00000001800029eb f   UE4Editor-Engine:UE4Editor-Engine.dll
 0001:000019f1       ?DisableInput@APawn@@UEAAXPEAVAPlayerController@@@Z 00000001800029f1 f   UE4Editor-Engine:UE4Editor-Engine.dll
 0001:000019f7       ?DispatchPhysicsCollisionHit@AActor@@UEAAXAEBUFRigidBodyCollisionInfo@@0AEBUFCollisionImpactData@@@Z 00000001800029f7 f   UE4Editor-Engine:UE4Editor-Engine.dll
 0001:000019fd       ?DisplayDebug@ACharacter@@UEAAXPEAVUCanvas@@AEBVFDebugDisplayInfo@@AEAM2@Z 00000001800029fd f   UE4Editor-Engine:UE4Editor-Engine.dll
 0001:00001a03       ?EditorApplyMirror@AActor@@UEAAXAEBUFVector@@0@Z 0000000180002a03 f   UE4Editor-Engine:UE4Editor-Engine.dll
 0001:00001a09       ?EditorApplyRotation@APawn@@UEAAXAEBUFRotator@@_N11@Z 0000000180002a09 f   UE4Editor-Engine:UE4Editor-Engine.dll
 0001:00001a0f       ?EditorApplyScale@AActor@@UEAAXAEBUFVector@@PEBU2@_N22@Z 0000000180002a0f f   UE4Editor-Engine:UE4Editor-Engine.dll
 0001:00001a15       ?EditorApplyTranslation@AActor@@UEAAXAEBUFVector@@_N11@Z 0000000180002a15 f   UE4Editor-Engine:UE4Editor-Engine.dll
 0001:00001a1b       ?EditorCanAttachTo@AActor@@UEBA_NPEBV1@AEAVFText@@@Z 0000000180002a1b f   UE4Editor-Engine:UE4Editor-Engine.dll
 0001:00001a21       ?EditorKeyPressed@AActor@@UEAAXUFKey@@W4EInputEvent@@@Z 0000000180002a21 f   UE4Editor-Engine:UE4Editor-Engine.dll
 0001:00001a27       ?EditorReplacedActor@AActor@@UEAAXPEAV1@@Z 0000000180002a27 f   UE4Editor-Engine:UE4Editor-Engine.dll
 0001:00001a2d       ?EnableInput@APawn@@UEAAXPEAVAPlayerController@@@Z 0000000180002a2d f   UE4Editor-Engine:UE4Editor-Engine.dll
 0001:00001a33       ?EndPlay@APawn@@UEAAXW4Type@EEndPlayReason@@@Z 0000000180002a33 f   UE4Editor-Engine:UE4Editor-Engine.dll
 0001:00001a39       ?EndViewTarget@AActor@@UEAAXPEAVAPlayerController@@@Z 0000000180002a39 f   UE4Editor-Engine:UE4Editor-Engine.dll
 0001:00001a3f       ?FaceRotation@APawn@@UEAAXUFRotator@@M@Z 0000000180002a3f f   UE4Editor-Engine:UE4Editor-Engine.dll
 0001:00001a45       ?FactoryTransactionAnnotation@AActor@@UEBA?AV?$TSharedPtr@VITransactionObjectAnnotation@@$0A@@@W4ETransactionAnnotationCreationMode@UObject@@@Z 0000000180002a45 f   UE4Editor-Engine:UE4Editor-Engine.dll
 0001:00001a4b       ?Falling@ACharacter@@UEAAXXZ 0000000180002a4b f   UE4Editor-Engine:UE4Editor-Engine.dll
 0001:00001a51       ?FellOutOfWorld@AActor@@UEAAXAEBVUDamageType@@@Z 0000000180002a51 f   UE4Editor-Engine:UE4Editor-Engine.dll
 0001:00001a57       ?FindComponentByClass@ACharacter@@UEBAPEAVUActorComponent@@V?$TSubclassOf@VUActorComponent@@@@@Z 0000000180002a57 f   UE4Editor-Engine:UE4Editor-Engine.dll
 0001:00001a5d       ?ForceNetRelevant@AActor@@UEAAXXZ 0000000180002a5d f   UE4Editor-Engine:UE4Editor-Engine.dll
 0001:00001a63       ?ForceNetUpdate@AActor@@UEAAXXZ 0000000180002a63 f   UE4Editor-Engine:UE4Editor-Engine.dll
 0001:00001a69       ?GatherCurrentMovement@AActor@@UEAAXXZ 0000000180002a69 f   UE4Editor-Engine:UE4Editor-Engine.dll
 0001:00001a6f       ?GetActorEyesViewPoint@APawn@@UEBAXAEAUFVector@@AEAUFRotator@@@Z 0000000180002a6f f   UE4Editor-Engine:UE4Editor-Engine.dll
 0001:00001a75       ?GetBaseAimRotation@APawn@@UEBA?AUFRotator@@XZ 0000000180002a75 f   UE4Editor-Engine:UE4Editor-Engine.dll
 0001:00001a7b       ?GetBaseRotationOffset@ACharacter@@UEBA?AUFQuat@@XZ 0000000180002a7b f   UE4Editor-Engine:UE4Editor-Engine.dll
 0001:00001a81       ?GetComponentsBoundingBox@AActor@@UEBA?AUFBox@@_N@Z 0000000180002a81 f   UE4Editor-Engine:UE4Editor-Engine.dll
 0001:00001a87       ?GetComponentsBoundingCylinder@AActor@@UEBAXAEAM0_N@Z 0000000180002a87 f   UE4Editor-Engine:UE4Editor-Engine.dll
 0001:00001a8d       ?GetComponentsCollisionResponseToChannel@AActor@@UEBA?AW4ECollisionResponse@@W4ECollisionChannel@@@Z 0000000180002a8d f   UE4Editor-Engine:UE4Editor-Engine.dll
 0001:00001a93       ?GetCustomIconName@AActor@@UEBA?AVFName@@XZ 0000000180002a93 f   UE4Editor-Engine:UE4Editor-Engine.dll
 0001:00001a99       ?GetDamageInstigator@APawn@@MEBAPEAVAController@@PEAV2@AEBVUDamageType@@@Z 0000000180002a99 f   UE4Editor-Engine:UE4Editor-Engine.dll
 0001:00001a9f       ?GetDefaultAttachComponent@AActor@@UEBAPEAVUSceneComponent@@XZ 0000000180002a9f f   UE4Editor-Engine:UE4Editor-Engine.dll
 0001:00001aa5       ?GetDefaultHalfHeight@ACharacter@@UEBAMXZ 0000000180002aa5 f   UE4Editor-Engine:UE4Editor-Engine.dll
 0001:00001aab       ?GetFunctionCallspace@AActor@@UEAAHPEAVUFunction@@PEAXPEAUFFrame@@@Z 0000000180002aab f   UE4Editor-Engine:UE4Editor-Engine.dll
 0001:00001ab1       ?GetHumanReadableName@APawn@@UEBA?AVFString@@XZ 0000000180002ab1 f   UE4Editor-Engine:UE4Editor-Engine.dll
 0001:00001ab7       ?GetJumpMaxHoldTime@ACharacter@@UEBAMXZ 0000000180002ab7 f   UE4Editor-Engine:UE4Editor-Engine.dll
 0001:00001abd       ?GetLastRenderTime@AActor@@UEBAMXZ 0000000180002abd f   UE4Editor-Engine:UE4Editor-Engine.dll
 0001:00001ac3       ?GetLifeSpan@AActor@@UEBAMXZ 0000000180002ac3 f   UE4Editor-Engine:UE4Editor-Engine.dll
 0001:00001ac9       ?GetLifetimeReplicatedProps@ACharacter@@UEBAXAEAV?$TArray@VFLifetimeProperty@@VFDefaultAllocator@@@@@Z 0000000180002ac9 f   UE4Editor-Engine:UE4Editor-Engine.dll
 0001:00001acf       ?GetMoveGoalReachTest@APawn@@UEBAXPEBVAActor@@AEBUFVector@@AEAU3@AEAM3@Z 0000000180002acf f   UE4Editor-Engine:UE4Editor-Engine.dll
 0001:00001ad5       ?GetMovementBase@ACharacter@@UEBAPEAVUPrimitiveComponent@@XZ 0000000180002ad5 f   UE4Editor-Engine:UE4Editor-Engine.dll
 0001:00001adb       ?GetMovementComponent@ACharacter@@UEBAPEAVUPawnMovementComponent@@XZ 0000000180002adb f   UE4Editor-Engine:UE4Editor-Engine.dll
 0001:00001ae1       ?GetNavAgentLocation@ACharacter@@UEBA?AUFVector@@XZ 0000000180002ae1 f   UE4Editor-Engine:UE4Editor-Engine.dll
 0001:00001ae7       ?GetNavAgentPropertiesRef@APawn@@UEBAAEBUFNavAgentProperties@@XZ 0000000180002ae7 f   UE4Editor-Engine:UE4Editor-Engine.dll
 0001:00001aed       ?GetNetConnection@APawn@@UEBAPEAVUNetConnection@@XZ 0000000180002aed f   UE4Editor-Engine:UE4Editor-Engine.dll
 0001:00001af3       ?GetNetDormancy@AActor@@UEAA_NAEBUFVector@@0PEAV1@1PEAVUActorChannel@@M_N@Z 0000000180002af3 f   UE4Editor-Engine:UE4Editor-Engine.dll
 0001:00001af9       ?GetNetOwner@APawn@@UEBAPEBVAActor@@XZ 0000000180002af9 f   UE4Editor-Engine:UE4Editor-Engine.dll
 0001:00001aff       ?GetNetOwningPlayer@APawn@@UEAAPEAVUPlayer@@XZ 0000000180002aff f   UE4Editor-Engine:UE4Editor-Engine.dll
 0001:00001b05       ?GetNetPriority@AActor@@UEAAMAEBUFVector@@0PEAV1@1PEAVUActorChannel@@M_N@Z 0000000180002b05 f   UE4Editor-Engine:UE4Editor-Engine.dll
 0001:00001b0b       ?GetPawnNoiseEmitterComponent@APawn@@UEBAPEAVUPawnNoiseEmitterComponent@@XZ 0000000180002b0b f   UE4Editor-Engine:UE4Editor-Engine.dll
 0001:00001b11       ?GetPawnPhysicsVolume@APawn@@UEBAPEAVAPhysicsVolume@@XZ 0000000180002b11 f   UE4Editor-Engine:UE4Editor-Engine.dll
 0001:00001b17       ?GetPawnViewLocation@APawn@@UEBA?AUFVector@@XZ 0000000180002b17 f   UE4Editor-Engine:UE4Editor-Engine.dll
 0001:00001b1d       ?GetReferencedContentObjects@AActor@@UEBA_NAEAV?$TArray@PEAVUObject@@VFDefaultAllocator@@@@@Z 0000000180002b1d f   UE4Editor-Engine:UE4Editor-Engine.dll
 0001:00001b23       ?GetReplayPriority@AActor@@UEAAMAEBUFVector@@0PEAV1@1QEAVUActorChannel@@M@Z 0000000180002b23 f   UE4Editor-Engine:UE4Editor-Engine.dll
 0001:00001b29       ?GetSimpleCollisionCylinder@ACharacter@@UEBAXAEAM0@Z 0000000180002b29 f   UE4Editor-Engine:UE4Editor-Engine.dll
 0001:00001b2f       ?GetSubobjectsWithStableNamesForNetworking@AActor@@UEAAXAEAV?$TArray@PEAVUObject@@VFDefaultAllocator@@@@@Z 0000000180002b2f f   UE4Editor-Engine:UE4Editor-Engine.dll
 0001:00001b35       ?GetTargetLocation@AActor@@UEBA?AUFVector@@PEAV1@@Z 0000000180002b35 f   UE4Editor-Engine:UE4Editor-Engine.dll
 0001:00001b3b       ?GetVelocity@APawn@@UEBA?AUFVector@@XZ 0000000180002b3b f   UE4Editor-Engine:UE4Editor-Engine.dll
 0001:00001b41       ?GetViewRotation@APawn@@UEBA?AUFRotator@@XZ 0000000180002b41 f   UE4Editor-Engine:UE4Editor-Engine.dll
 0001:00001b47       ?GetWorld@AActor@@UEBAPEAVUWorld@@XZ 0000000180002b47 f   UE4Editor-Engine:UE4Editor-Engine.dll
 0001:00001b4d       ?HasActiveCameraComponent@AActor@@UEBA_NXZ 0000000180002b4d f   UE4Editor-Engine:UE4Editor-Engine.dll
 0001:00001b53       ?HasActivePawnControlCameraComponent@AActor@@UEBA_NXZ 0000000180002b53 f   UE4Editor-Engine:UE4Editor-Engine.dll
 0001:00001b59       ?HasNetOwner@AActor@@MEBA_NXZ 0000000180002b59 f   UE4Editor-Engine:UE4Editor-Engine.dll
 0001:00001b5f       ?InFreeCam@APawn@@UEBA_NXZ 0000000180002b5f f   UE4Editor-Engine:UE4Editor-Engine.dll
 0001:00001b65       ?InternalTakePointDamage@AActor@@MEAAMMAEBUFPointDamageEvent@@PEAVAController@@PEAV1@@Z 0000000180002b65 f   UE4Editor-Engine:UE4Editor-Engine.dll
 0001:00001b6b       ?InternalTakeRadialDamage@AActor@@MEAAMMAEBUFRadialDamageEvent@@PEAVAController@@PEAV1@@Z 0000000180002b6b f   UE4Editor-Engine:UE4Editor-Engine.dll
 0001:00001b71       ?InvalidateLightingCacheDetailed@AActor@@UEAAX_N@Z 0000000180002b71 f   UE4Editor-Engine:UE4Editor-Engine.dll
 0001:00001b77       ?IsAttachedTo@AActor@@UEBA_NPEBV1@@Z 0000000180002b77 f   UE4Editor-Engine:UE4Editor-Engine.dll
 0001:00001b7d       ?IsBasedOnActor@APawn@@UEBA_NPEBVAActor@@@Z 0000000180002b7d f   UE4Editor-Engine:UE4Editor-Engine.dll
 0001:00001b83       ?IsComponentRelevantForNavigation@AActor@@UEBA_NPEAVUActorComponent@@@Z 0000000180002b83 f   UE4Editor-Engine:UE4Editor-Engine.dll
 0001:00001b89       ?IsDataValid@AActor@@UEAA?AW4EDataValidationResult@@AEAV?$TArray@VFText@@VFDefaultAllocator@@@@@Z 0000000180002b89 f   UE4Editor-Engine:UE4Editor-Engine.dll
 0001:00001b8f       ?IsEditorOnly@AActor@@UEBA_NXZ 0000000180002b8f f   UE4Editor-Engine:UE4Editor-Engine.dll
 0001:00001b95       ?IsJumpProvidingForce@ACharacter@@UEBA_NXZ 0000000180002b95 f   UE4Editor-Engine:UE4Editor-Engine.dll
 0001:00001b9b       ?IsLevelBoundsRelevant@AActor@@UEBA_NXZ 0000000180002b9b f   UE4Editor-Engine:UE4Editor-Engine.dll
 0001:00001ba1       ?IsListedInSceneOutliner@AActor@@UEBA_NXZ 0000000180002ba1 f   UE4Editor-Engine:UE4Editor-Engine.dll
 0001:00001ba7       ?IsLocallyControlled@APawn@@UEBA_NXZ 0000000180002ba7 f   UE4Editor-Engine:UE4Editor-Engine.dll
 0001:00001bad       ?IsMoveInputIgnored@APawn@@UEBA_NXZ 0000000180002bad f   UE4Editor-Engine:UE4Editor-Engine.dll
 0001:00001bb3       ?IsNameStableForNetworking@AActor@@UEBA_NXZ 0000000180002bb3 f   UE4Editor-Engine:UE4Editor-Engine.dll
 0001:00001bb9       ?IsNetRelevantFor@APawn@@UEBA_NPEBVAActor@@0AEBUFVector@@@Z 0000000180002bb9 f   UE4Editor-Engine:UE4Editor-Engine.dll
 0001:00001bbf       ?IsPlayerControlled@APawn@@UEBA_NXZ 0000000180002bbf f   UE4Editor-Engine:UE4Editor-Engine.dll
 0001:00001bc5       ?IsReadyForFinishDestroy@AActor@@UEAA_NXZ 0000000180002bc5 f   UE4Editor-Engine:UE4Editor-Engine.dll
 0001:00001bcb       ?IsRelevancyOwnerFor@AActor@@UEBA_NPEBV1@00@Z 0000000180002bcb f   UE4Editor-Engine:UE4Editor-Engine.dll
 0001:00001bd1       ?IsReplayRelevantFor@AActor@@UEBA_NPEBV1@0AEBUFVector@@M@Z 0000000180002bd1 f   UE4Editor-Engine:UE4Editor-Engine.dll
 0001:00001bd7       ?IsReplicationPausedForConnection@AActor@@UEAA_NAEBUFNetViewer@@@Z 0000000180002bd7 f   UE4Editor-Engine:UE4Editor-Engine.dll
 0001:00001bdd       ?IsRootComponentCollisionRegistered@AActor@@UEBA_NXZ 0000000180002bdd f   UE4Editor-Engine:UE4Editor-Engine.dll
 0001:00001be3       ?IsSelectable@AActor@@UEBA_NXZ 0000000180002be3 f   UE4Editor-Engine:UE4Editor-Engine.dll
 0001:00001be9       ?IsSelectedInEditor@AActor@@UEBA_NXZ 0000000180002be9 f   UE4Editor-Engine:UE4Editor-Engine.dll
 0001:00001bef       ?IsSupportedForNetworking@AActor@@UEBA_NXZ 0000000180002bef f   UE4Editor-Engine:UE4Editor-Engine.dll
 0001:00001bf5       ?Jump@ACharacter@@UEAAXXZ  0000000180002bf5 f   UE4Editor-Engine:UE4Editor-Engine.dll
 0001:00001bfb       ?K2_DestroyActor@AActor@@UEAAXXZ 0000000180002bfb f   UE4Editor-Engine:UE4Editor-Engine.dll
 0001:00001c01       ?Landed@ACharacter@@UEAAXAEBUFHitResult@@@Z 0000000180002c01 f   UE4Editor-Engine:UE4Editor-Engine.dll
 0001:00001c07       ?LaunchCharacter@ACharacter@@UEAAXUFVector@@_N1@Z 0000000180002c07 f   UE4Editor-Engine:UE4Editor-Engine.dll
 0001:00001c0d       ?LifeSpanExpired@AActor@@UEAAXXZ 0000000180002c0d f   UE4Editor-Engine:UE4Editor-Engine.dll
 0001:00001c13       ?MarkComponentsAsPendingKill@AActor@@UEAAXXZ 0000000180002c13 f   UE4Editor-Engine:UE4Editor-Engine.dll
 0001:00001c19       ?Modify@AActor@@UEAA_N_N@Z 0000000180002c19 f   UE4Editor-Engine:UE4Editor-Engine.dll
 0001:00001c1f       ?MoveBlockedBy@ACharacter@@UEAAXAEBUFHitResult@@@Z 0000000180002c1f f   UE4Editor-Engine:UE4Editor-Engine.dll
 0001:00001c25       ?NeedsLoadForTargetPlatform@AActor@@UEBA_NPEBVITargetPlatform@@@Z 0000000180002c25 f   UE4Editor-Engine:UE4Editor-Engine.dll
 0001:00001c2b       ?NotifyActorBeginCursorOver@AActor@@UEAAXXZ 0000000180002c2b f   UE4Editor-Engine:UE4Editor-Engine.dll
 0001:00001c31       ?NotifyActorBeginOverlap@ACharacter@@UEAAXPEAVAActor@@@Z 0000000180002c31 f   UE4Editor-Engine:UE4Editor-Engine.dll
 0001:00001c37       ?NotifyActorEndCursorOver@AActor@@UEAAXXZ 0000000180002c37 f   UE4Editor-Engine:UE4Editor-Engine.dll
 0001:00001c3d       ?NotifyActorEndOverlap@ACharacter@@UEAAXPEAVAActor@@@Z 0000000180002c3d f   UE4Editor-Engine:UE4Editor-Engine.dll
 0001:00001c43       ?NotifyActorOnClicked@AActor@@UEAAXUFKey@@@Z 0000000180002c43 f   UE4Editor-Engine:UE4Editor-Engine.dll
 0001:00001c49       ?NotifyActorOnInputTouchBegin@AActor@@UEAAXW4Type@ETouchIndex@@@Z 0000000180002c49 f   UE4Editor-Engine:UE4Editor-Engine.dll
 0001:00001c4f       ?NotifyActorOnInputTouchEnd@AActor@@UEAAXW4Type@ETouchIndex@@@Z 0000000180002c4f f   UE4Editor-Engine:UE4Editor-Engine.dll
 0001:00001c55       ?NotifyActorOnInputTouchEnter@AActor@@UEAAXW4Type@ETouchIndex@@@Z 0000000180002c55 f   UE4Editor-Engine:UE4Editor-Engine.dll
 0001:00001c5b       ?NotifyActorOnInputTouchLeave@AActor@@UEAAXW4Type@ETouchIndex@@@Z 0000000180002c5b f   UE4Editor-Engine:UE4Editor-Engine.dll
 0001:00001c61       ?NotifyActorOnReleased@AActor@@UEAAXUFKey@@@Z 0000000180002c61 f   UE4Editor-Engine:UE4Editor-Engine.dll
 0001:00001c67       ?NotifyHit@AActor@@UEAAXPEAVUPrimitiveComponent@@PEAV1@0_NUFVector@@33AEBUFHitResult@@@Z 0000000180002c67 f   UE4Editor-Engine:UE4Editor-Engine.dll
 0001:00001c6d       ?NotifyJumpApex@ACharacter@@UEAAXXZ 0000000180002c6d f   UE4Editor-Engine:UE4Editor-Engine.dll
 0001:00001c73       ?OnActorChannelOpen@AActor@@UEAAXAEAVFInBunch@@PEAVUNetConnection@@@Z 0000000180002c73 f   UE4Editor-Engine:UE4Editor-Engine.dll
 0001:00001c79       ?OnConstruction@AActor@@UEAAXAEBUFTransform@@@Z 0000000180002c79 f   UE4Editor-Engine:UE4Editor-Engine.dll
 0001:00001c7f       ?OnEndCrouch@ACharacter@@UEAAXMM@Z 0000000180002c7f f   UE4Editor-Engine:UE4Editor-Engine.dll
 0001:00001c85       ?OnJumped_Implementation@ACharacter@@UEAAXXZ 0000000180002c85 f   UE4Editor-Engine:UE4Editor-Engine.dll
 0001:00001c8b       ?OnMovementModeChanged@ACharacter@@UEAAXW4EMovementMode@@E@Z 0000000180002c8b f   UE4Editor-Engine:UE4Editor-Engine.dll
 0001:00001c91       ?OnNetCleanup@AActor@@UEAAXPEAVUNetConnection@@@Z 0000000180002c91 f   UE4Editor-Engine:UE4Editor-Engine.dll
 0001:00001c97       ?OnRep_AttachmentReplication@AActor@@UEAAXXZ 0000000180002c97 f   UE4Editor-Engine:UE4Editor-Engine.dll
 0001:00001c9d       ?OnRep_Controller@APawn@@UEAAXXZ 0000000180002c9d f   UE4Editor-Engine:UE4Editor-Engine.dll
 0001:00001ca3       ?OnRep_Instigator@AActor@@UEAAXXZ 0000000180002ca3 f   UE4Editor-Engine:UE4Editor-Engine.dll
 0001:00001ca9       ?OnRep_IsCrouched@ACharacter@@UEAAXXZ 0000000180002ca9 f   UE4Editor-Engine:UE4Editor-Engine.dll
 0001:00001caf       ?OnRep_Owner@AActor@@MEAAXXZ 0000000180002caf f   UE4Editor-Engine:UE4Editor-Engine.dll
 0001:00001cb5       ?OnRep_PlayerState@APawn@@UEAAXXZ 0000000180002cb5 f   UE4Editor-Engine:UE4Editor-Engine.dll
 0001:00001cbb       ?OnRep_ReplicateMovement@AActor@@UEAAXXZ 0000000180002cbb f   UE4Editor-Engine:UE4Editor-Engine.dll
 0001:00001cc1       ?OnRep_ReplicatedBasedMovement@ACharacter@@UEAAXXZ 0000000180002cc1 f   UE4Editor-Engine:UE4Editor-Engine.dll
 0001:00001cc7       ?OnRep_ReplicatedMovement@ACharacter@@UEAAXXZ 0000000180002cc7 f   UE4Editor-Engine:UE4Editor-Engine.dll
 0001:00001ccd       ?OnReplicationPausedChanged@AActor@@UEAAX_N@Z 0000000180002ccd f   UE4Editor-Engine:UE4Editor-Engine.dll
 0001:00001cd3       ?OnSerializeNewActor@AActor@@UEAAXAEAVFOutBunch@@@Z 0000000180002cd3 f   UE4Editor-Engine:UE4Editor-Engine.dll
 0001:00001cd9       ?OnStartCrouch@ACharacter@@UEAAXMM@Z 0000000180002cd9 f   UE4Editor-Engine:UE4Editor-Engine.dll
 0001:00001cdf       ?OnSubobjectCreatedFromReplication@AActor@@UEAAXPEAVUObject@@@Z 0000000180002cdf f   UE4Editor-Engine:UE4Editor-Engine.dll
 0001:00001ce5       ?OnSubobjectDestroyFromReplication@AActor@@UEAAXPEAVUObject@@@Z 0000000180002ce5 f   UE4Editor-Engine:UE4Editor-Engine.dll
 0001:00001ceb       ?OnUpdateSimulatedPosition@ACharacter@@UEAAXAEBUFVector@@AEBUFQuat@@@Z 0000000180002ceb f   UE4Editor-Engine:UE4Editor-Engine.dll
 0001:00001cf1       ?OnWalkingOffLedge_Implementation@ACharacter@@UEAAXAEBUFVector@@00M@Z 0000000180002cf1 f   UE4Editor-Engine:UE4Editor-Engine.dll
 0001:00001cf7       ?OutsideWorldBounds@APawn@@UEAAXXZ 0000000180002cf7 f   UE4Editor-Engine:UE4Editor-Engine.dll
 0001:00001cfd       ?PawnClientRestart@ACharacter@@UEAAXXZ 0000000180002cfd f   UE4Editor-Engine:UE4Editor-Engine.dll
 0001:00001d03       ?PawnStartFire@APawn@@UEAAXE@Z 0000000180002d03 f   UE4Editor-Engine:UE4Editor-Engine.dll
 0001:00001d09       ?PlayAnimMontage@ACharacter@@UEAAMPEAVUAnimMontage@@MVFName@@@Z 0000000180002d09 f   UE4Editor-Engine:UE4Editor-Engine.dll
 0001:00001d0f       ?PossessedBy@ACharacter@@UEAAXPEAVAController@@@Z 0000000180002d0f f   UE4Editor-Engine:UE4Editor-Engine.dll
 0001:00001d15       ?PostActorCreated@AActor@@UEAAXXZ 0000000180002d15 f   UE4Editor-Engine:UE4Editor-Engine.dll
 0001:00001d1b       ?PostEditChangeProperty@APawn@@UEAAXAEAUFPropertyChangedEvent@@@Z 0000000180002d1b f   UE4Editor-Engine:UE4Editor-Engine.dll
 0001:00001d21       ?PostEditImport@AActor@@UEAAXXZ 0000000180002d21 f   UE4Editor-Engine:UE4Editor-Engine.dll
 0001:00001d27       ?PostEditMove@AActor@@UEAAX_N@Z 0000000180002d27 f   UE4Editor-Engine:UE4Editor-Engine.dll
 0001:00001d2d       ?PostEditUndo@AActor@@UEAAXV?$TSharedPtr@VITransactionObjectAnnotation@@$0A@@@@Z 0000000180002d2d f   UE4Editor-Engine:UE4Editor-Engine.dll
 0001:00001d33       ?PostEditUndo@AActor@@UEAAXXZ 0000000180002d33 f   UE4Editor-Engine:UE4Editor-Engine.dll
 0001:00001d39       ?PostInitProperties@AActor@@UEAAXXZ 0000000180002d39 f   UE4Editor-Engine:UE4Editor-Engine.dll
 0001:00001d3f       ?PostInitializeComponents@ACharacter@@UEAAXXZ 0000000180002d3f f   UE4Editor-Engine:UE4Editor-Engine.dll
 0001:00001d45       ?PostLoad@APawn@@UEAAXXZ   0000000180002d45 f   UE4Editor-Engine:UE4Editor-Engine.dll
 0001:00001d4b       ?PostLoadSubobjects@AActor@@UEAAXPEAUFObjectInstancingGraph@@@Z 0000000180002d4b f   UE4Editor-Engine:UE4Editor-Engine.dll
 0001:00001d51       ?PostNetInit@AActor@@UEAAXXZ 0000000180002d51 f   UE4Editor-Engine:UE4Editor-Engine.dll
 0001:00001d57       ?PostNetReceive@ACharacter@@UEAAXXZ 0000000180002d57 f   UE4Editor-Engine:UE4Editor-Engine.dll
 0001:00001d5d       ?PostNetReceiveLocationAndRotation@ACharacter@@UEAAXXZ 0000000180002d5d f   UE4Editor-Engine:UE4Editor-Engine.dll
 0001:00001d63       ?PostNetReceivePhysicState@AActor@@UEAAXXZ 0000000180002d63 f   UE4Editor-Engine:UE4Editor-Engine.dll
 0001:00001d69       ?PostNetReceiveRole@AActor@@UEAAXXZ 0000000180002d69 f   UE4Editor-Engine:UE4Editor-Engine.dll
 0001:00001d6f       ?PostNetReceiveVelocity@APawn@@UEAAXAEBUFVector@@@Z 0000000180002d6f f   UE4Editor-Engine:UE4Editor-Engine.dll
 0001:00001d75       ?PostRegisterAllComponents@APawn@@UEAAXXZ 0000000180002d75 f   UE4Editor-Engine:UE4Editor-Engine.dll
 0001:00001d7b       ?PostRename@AActor@@UEAAXPEAVUObject@@VFName@@@Z 0000000180002d7b f   UE4Editor-Engine:UE4Editor-Engine.dll
 0001:00001d81       ?PostRenderFor@AActor@@UEAAXPEAVAPlayerController@@PEAVUCanvas@@UFVector@@2@Z 0000000180002d81 f   UE4Editor-Engine:UE4Editor-Engine.dll
 0001:00001d87       ?PostUnregisterAllComponents@AActor@@UEAAXXZ 0000000180002d87 f   UE4Editor-Engine:UE4Editor-Engine.dll
 0001:00001d8d       ?PreEditChange@AActor@@UEAAXPEAVUProperty@@@Z 0000000180002d8d f   UE4Editor-Engine:UE4Editor-Engine.dll
 0001:00001d93       ?PreEditUndo@AActor@@UEAAXXZ 0000000180002d93 f   UE4Editor-Engine:UE4Editor-Engine.dll
 0001:00001d99       ?PreInitializeComponents@APawn@@UEAAXXZ 0000000180002d99 f   UE4Editor-Engine:UE4Editor-Engine.dll
 0001:00001d9f       ?PreNetReceive@ACharacter@@UEAAXXZ 0000000180002d9f f   UE4Editor-Engine:UE4Editor-Engine.dll
 0001:00001da5       ?PreRegisterAllComponents@AActor@@UEAAXXZ 0000000180002da5 f   UE4Editor-Engine:UE4Editor-Engine.dll
 0001:00001dab       ?PreReplication@ACharacter@@UEAAXAEAVIRepChangedPropertyTracker@@@Z 0000000180002dab f   UE4Editor-Engine:UE4Editor-Engine.dll
 0001:00001db1       ?PreReplicationForReplay@ACharacter@@UEAAXAEAVIRepChangedPropertyTracker@@@Z 0000000180002db1 f   UE4Editor-Engine:UE4Editor-Engine.dll
 0001:00001db7       ?PrestreamTextures@AActor@@UEAAXM_NH@Z 0000000180002db7 f   UE4Editor-Engine:UE4Editor-Engine.dll
 0001:00001dbd       ?ProcessEvent@AActor@@UEAAXPEAVUFunction@@PEAX@Z 0000000180002dbd f   UE4Editor-Engine:UE4Editor-Engine.dll
 0001:00001dc3       ?ReachedDesiredRotation@APawn@@UEAA_NXZ 0000000180002dc3 f   UE4Editor-Engine:UE4Editor-Engine.dll
 0001:00001dc9       ?RecalculateBaseEyeHeight@ACharacter@@UEAAXXZ 0000000180002dc9 f   UE4Editor-Engine:UE4Editor-Engine.dll
 0001:00001dcf       ?RegisterActorTickFunctions@AActor@@MEAAX_N@Z 0000000180002dcf f   UE4Editor-Engine:UE4Editor-Engine.dll
 0001:00001dd5       ?RegisterAllComponents@AActor@@UEAAXXZ 0000000180002dd5 f   UE4Editor-Engine:UE4Editor-Engine.dll
 0001:00001ddb       ?RemoveTickPrerequisiteActor@AActor@@UEAAXPEAV1@@Z 0000000180002ddb f   UE4Editor-Engine:UE4Editor-Engine.dll
 0001:00001de1       ?RemoveTickPrerequisiteComponent@AActor@@UEAAXPEAVUActorComponent@@@Z 0000000180002de1 f   UE4Editor-Engine:UE4Editor-Engine.dll
 0001:00001de7       ?Rename@AActor@@UEAA_NPEB_WPEAVUObject@@I@Z 0000000180002de7 f   UE4Editor-Engine:UE4Editor-Engine.dll
 0001:00001ded       ?ReplicateSubobjects@AActor@@UEAA_NPEAVUActorChannel@@PEAVFOutBunch@@PEAUFReplicationFlags@@@Z 0000000180002ded f   UE4Editor-Engine:UE4Editor-Engine.dll
 0001:00001df3       ?ReregisterAllComponents@AActor@@UEAAXXZ 0000000180002df3 f   UE4Editor-Engine:UE4Editor-Engine.dll
 0001:00001df9       ?RerunConstructionScripts@AActor@@UEAAXXZ 0000000180002df9 f   UE4Editor-Engine:UE4Editor-Engine.dll
 0001:00001dff       ?Reset@APawn@@UEAAXXZ      0000000180002dff f   UE4Editor-Engine:UE4Editor-Engine.dll
 0001:00001e05       ?ResetJumpState@ACharacter@@UEAAXXZ 0000000180002e05 f   UE4Editor-Engine:UE4Editor-Engine.dll
 0001:00001e0b       ?Restart@ACharacter@@UEAAXXZ 0000000180002e0b f   UE4Editor-Engine:UE4Editor-Engine.dll
 0001:00001e11       ?RewindForReplay@AActor@@UEAAXXZ 0000000180002e11 f   UE4Editor-Engine:UE4Editor-Engine.dll
 0001:00001e17       ?RootMotionDebugClientPrintOnScreen_Implementation@ACharacter@@UEAAXAEBVFString@@@Z 0000000180002e17 f   UE4Editor-Engine:UE4Editor-Engine.dll
 0001:00001e1d       ?Serialize@AActor@@UEAAXAEAVFArchive@@@Z 0000000180002e1d f   UE4Editor-Engine:UE4Editor-Engine.dll
 0001:00001e23       ?Serialize@AActor@@UEAAXVFRecord@FStructuredArchive@@@Z 0000000180002e23 f   UE4Editor-Engine:UE4Editor-Engine.dll
 0001:00001e29       ?SetActorHiddenInGame@AActor@@UEAAX_N@Z 0000000180002e29 f   UE4Editor-Engine:UE4Editor-Engine.dll
 0001:00001e2f       ?SetBase@ACharacter@@UEAAXPEAVUPrimitiveComponent@@VFName@@_N@Z 0000000180002e2f f   UE4Editor-Engine:UE4Editor-Engine.dll
 0001:00001e35       ?SetIsTemporarilyHiddenInEditor@AActor@@UEAAX_N@Z 0000000180002e35 f   UE4Editor-Engine:UE4Editor-Engine.dll
 0001:00001e3b       ?SetLifeSpan@AActor@@UEAAXM@Z 0000000180002e3b f   UE4Editor-Engine:UE4Editor-Engine.dll
 0001:00001e41       ?SetOwner@AActor@@UEAAXPEAV1@@Z 0000000180002e41 f   UE4Editor-Engine:UE4Editor-Engine.dll
 0001:00001e47       ?SetPlayerDefaults@APawn@@UEAAXXZ 0000000180002e47 f   UE4Editor-Engine:UE4Editor-Engine.dll
 0001:00001e4d       ?SetReplicateMovement@ACharacter@@UEAAX_N@Z 0000000180002e4d f   UE4Editor-Engine:UE4Editor-Engine.dll
 0001:00001e53       ?ShouldExport@AActor@@UEAA_NXZ 0000000180002e53 f   UE4Editor-Engine:UE4Editor-Engine.dll
 0001:00001e59       ?ShouldImport@AActor@@UEAA_NPEAVFString@@_N@Z 0000000180002e59 f   UE4Editor-Engine:UE4Editor-Engine.dll
 0001:00001e5f       ?ShouldNotifyLanded@ACharacter@@UEAA_NAEBUFHitResult@@@Z 0000000180002e5f f   UE4Editor-Engine:UE4Editor-Engine.dll
 0001:00001e65       ?ShouldTakeDamage@APawn@@UEBA_NMAEBUFDamageEvent@@PEAVAController@@PEAVAActor@@@Z 0000000180002e65 f   UE4Editor-Engine:UE4Editor-Engine.dll
 0001:00001e6b       ?ShouldTickIfViewportsOnly@APawn@@UEBA_NXZ 0000000180002e6b f   UE4Editor-Engine:UE4Editor-Engine.dll
 0001:00001e71       ?SpawnDefaultController@APawn@@UEAAXXZ 0000000180002e71 f   UE4Editor-Engine:UE4Editor-Engine.dll
 0001:00001e77       ?StopAnimMontage@ACharacter@@UEAAXPEAVUAnimMontage@@@Z 0000000180002e77 f   UE4Editor-Engine:UE4Editor-Engine.dll
 0001:00001e7d       ?StopJumping@ACharacter@@UEAAXXZ 0000000180002e7d f   UE4Editor-Engine:UE4Editor-Engine.dll
 0001:00001e83       ?TakeDamage@APawn@@UEAAMMAEBUFDamageEvent@@PEAVAController@@PEAVAActor@@@Z 0000000180002e83 f   UE4Editor-Engine:UE4Editor-Engine.dll
 0001:00001e89       ?TearOff@AActor@@UEAAXXZ   0000000180002e89 f   UE4Editor-Engine:UE4Editor-Engine.dll
 0001:00001e8f       ?TeleportSucceeded@APawn@@UEAAX_N@Z 0000000180002e8f f   UE4Editor-Engine:UE4Editor-Engine.dll
 0001:00001e95       ?TeleportTo@AActor@@UEAA_NAEBUFVector@@AEBUFRotator@@_N2@Z 0000000180002e95 f   UE4Editor-Engine:UE4Editor-Engine.dll
 0001:00001e9b       ?TickActor@AActor@@UEAAXMW4ELevelTick@@AEAUFActorTickFunction@@@Z 0000000180002e9b f   UE4Editor-Engine:UE4Editor-Engine.dll
 0001:00001ea1       ?TornOff@ACharacter@@UEAAXXZ 0000000180002ea1 f   UE4Editor-Engine:UE4Editor-Engine.dll
 0001:00001ea7       ?TurnOff@ACharacter@@UEAAXXZ 0000000180002ea7 f   UE4Editor-Engine:UE4Editor-Engine.dll
 0001:00001ead       ?UnCrouch@ACharacter@@UEAAX_N@Z 0000000180002ead f   UE4Editor-Engine:UE4Editor-Engine.dll
 0001:00001eb3       ?UnPossessed@ACharacter@@UEAAXXZ 0000000180002eb3 f   UE4Editor-Engine:UE4Editor-Engine.dll
 0001:00001eb9       ?UnregisterAllComponents@AActor@@UEAAX_N@Z 0000000180002eb9 f   UE4Editor-Engine:UE4Editor-Engine.dll
 0001:00001ebf       ?UpdateNavigationRelevance@ACharacter@@UEAAXXZ 0000000180002ebf f   UE4Editor-Engine:UE4Editor-Engine.dll
 0001:00001ec5       ?UseShortConnectTimeout@AActor@@UEBA_NXZ 0000000180002ec5 f   UE4Editor-Engine:UE4Editor-Engine.dll
 0001:00001ecb       ?_getUObject@APawn@@UEBAPEAVUObject@@XZ 0000000180002ecb f   UE4Editor-Engine:UE4Editor-Engine.dll
 0001:00001ed1       ?AddReferencedObjects@AActor@@SAXPEAVUObject@@AEAVFReferenceCollector@@@Z 0000000180002ed1 f   UE4Editor-Engine:UE4Editor-Engine.dll
 0001:00001ed7       ?StaticConfigName@APawn@@SAPEB_WXZ 0000000180002ed7 f   UE4Editor-Engine:UE4Editor-Engine.dll
 0001:00001edd       ?StaticClass@ACharacter@@SAPEAVUClass@@XZ 0000000180002edd f   UE4Editor-Engine:UE4Editor-Engine.dll
 0001:00001ee3       ??0ACharacter@@QEAA@AEAVFVTableHelper@@@Z 0000000180002ee3 f   UE4Editor-Engine:UE4Editor-Engine.dll
 0001:00001ee9       ?Z_Construct_UClass_ACharacter@@YAPEAVUClass@@XZ 0000000180002ee9 f   UE4Editor-Engine:UE4Editor-Engine.dll
 0001:00001eef       ?Malloc@FMemory@@SAPEAX_KI@Z 0000000180002eef f   UE4Editor-Core:UE4Editor-Core.dll
 0001:00001ef5       ?Free@FMemory@@SAXPEAX@Z   0000000180002ef5 f   UE4Editor-Core:UE4Editor-Core.dll
 0001:00001efb       ?GetNameTableForDebuggerVisualizers_MT@FName@@SAPEAPEAPEAUFNameEntry@@XZ 0000000180002efb f   UE4Editor-Core:UE4Editor-Core.dll
 0001:00001f01       ?IsDebuggerPresent@FWindowsPlatformMisc@@SA_NXZ 0000000180002f01 f   UE4Editor-Core:UE4Editor-Core.dll
 0001:00001f07       ?PromptForRemoteDebugging@FWindowsPlatformMisc@@SAX_N@Z 0000000180002f07 f   UE4Editor-Core:UE4Editor-Core.dll
 0001:00001f0d       ?AssertFailed@FDebug@@SAXPEBD0HPEB_WZZ 0000000180002f0d f   UE4Editor-Core:UE4Editor-Core.dll
 0001:00001f13       ?LogAssertFailedMessageImpl@FDebug@@CAXPEBD0HPEB_WZZ 0000000180002f13 f   UE4Editor-Core:UE4Editor-Core.dll
 0001:00001f19       ?Realloc@FMemory@@SAPEAXPEAX_KI@Z 0000000180002f19 f   UE4Editor-Core:UE4Editor-Core.dll
 0001:00001f1f       ?QuantizeSize@FMemory@@SA_K_KI@Z 0000000180002f1f f   UE4Editor-Core:UE4Editor-Core.dll
 0001:00001f25       ??0FName@@QEAA@PEB_WW4EFindName@@@Z 0000000180002f25 f   UE4Editor-Core:UE4Editor-Core.dll
 0001:00001f2b       ??0FLLMScope@@QEAA@W4ELLMTag@@W4ELLMTagSet@@W4ELLMTracker@@@Z 0000000180002f2b f   UE4Editor-Core:UE4Editor-Core.dll
 0001:00001f31       ??1FLLMScope@@QEAA@XZ      0000000180002f31 f   UE4Editor-Core:UE4Editor-Core.dll
 0001:00001f37       ?GetTransientPackage@@YAPEAVUPackage@@XZ 0000000180002f37 f   UE4Editor-CoreUObject:UE4Editor-CoreUObject.dll
 0001:00001f3d       ?StaticAllocateObject@@YAPEAVUObject@@PEAVUClass@@PEAV1@VFName@@W4EObjectFlags@@W4EInternalObjectFlags@@_NPEA_N@Z 0000000180002f3d f   UE4Editor-CoreUObject:UE4Editor-CoreUObject.dll
 0001:00001f43       ?Get@FObjectInitializer@@SAAEAV1@XZ 0000000180002f43 f   UE4Editor-CoreUObject:UE4Editor-CoreUObject.dll
 0001:00001f49       ?AreNativePropertiesIdenticalTo@UObject@@UEBA_NPEAV1@@Z 0000000180002f49 f   UE4Editor-CoreUObject:UE4Editor-CoreUObject.dll
 0001:00001f4f       ?BeginCacheForCookedPlatformData@UObject@@UEAAXPEBVITargetPlatform@@@Z 0000000180002f4f f   UE4Editor-CoreUObject:UE4Editor-CoreUObject.dll
 0001:00001f55       ?BuildSubobjectMapping@UObject@@UEBAXPEAV1@AEAV?$TMap@PEAVUObject@@PEAV1@VFDefaultSetAllocator@@U?$TDefaultMapHashableKeyFuncs@PEAVUObject@@PEAV1@$0A@@@@@@Z 0000000180002f55 f   UE4Editor-CoreUObject:UE4Editor-CoreUObject.dll
 0001:00001f5b       ?CanBeClusterRoot@UObjectBaseUtility@@UEBA_NXZ 0000000180002f5b f   UE4Editor-CoreUObject:UE4Editor-CoreUObject.dll
 0001:00001f61       ?CanEditChange@UObject@@UEBA_NPEBVUProperty@@@Z 0000000180002f61 f   UE4Editor-CoreUObject:UE4Editor-CoreUObject.dll
 0001:00001f67       ?ClearAllCachedCookedPlatformData@UObject@@UEAAXXZ 0000000180002f67 f   UE4Editor-CoreUObject:UE4Editor-CoreUObject.dll
 0001:00001f6d       ?ClearCachedCookedPlatformData@UObject@@UEAAXPEBVITargetPlatform@@@Z 0000000180002f6d f   UE4Editor-CoreUObject:UE4Editor-CoreUObject.dll
 0001:00001f73       ?CookAdditionalFiles@UObject@@UEAAXPEB_WPEBVITargetPlatform@@@Z 0000000180002f73 f   UE4Editor-CoreUObject:UE4Editor-CoreUObject.dll
 0001:00001f79       ?CreateCluster@UObjectBaseUtility@@UEAAXXZ 0000000180002f79 f   UE4Editor-CoreUObject:UE4Editor-CoreUObject.dll
 0001:00001f7f       ?DeferredRegister@UObjectBase@@MEAAXPEAVUClass@@PEB_W1@Z 0000000180002f7f f   UE4Editor-CoreUObject:UE4Editor-CoreUObject.dll
 0001:00001f85       ?ExportCustomProperties@UObject@@UEAAXAEAVFOutputDevice@@I@Z 0000000180002f85 f   UE4Editor-CoreUObject:UE4Editor-CoreUObject.dll
 0001:00001f8b       ?FinishDestroy@UObject@@UEAAXXZ 0000000180002f8b f   UE4Editor-CoreUObject:UE4Editor-CoreUObject.dll
 0001:00001f91       ?GetAssetRegistryTagMetadata@UObject@@UEBAXAEAV?$TMap@VFName@@UFAssetRegistryTagMetadata@UObject@@VFDefaultSetAllocator@@U?$TDefaultMapHashableKeyFuncs@VFName@@UFAssetRegistryTagMetadata@UObject@@$0A@@@@@@Z 0000000180002f91 f   UE4Editor-CoreUObject:UE4Editor-CoreUObject.dll
 0001:00001f97       ?GetAssetRegistryTags@UObject@@UEBAXAEAV?$TArray@UFAssetRegistryTag@UObject@@VFDefaultAllocator@@@@@Z 0000000180002f97 f   UE4Editor-CoreUObject:UE4Editor-CoreUObject.dll
 0001:00001f9d       ?GetConfigOverridePlatform@UObject@@UEBAPEB_WXZ 0000000180002f9d f   UE4Editor-CoreUObject:UE4Editor-CoreUObject.dll
 0001:00001fa3       ?GetDesc@UObject@@UEAA?AVFString@@XZ 0000000180002fa3 f   UE4Editor-CoreUObject:UE4Editor-CoreUObject.dll
 0001:00001fa9       ?GetDetailedInfoInternal@UObject@@MEBA?AVFString@@XZ 0000000180002fa9 f   UE4Editor-CoreUObject:UE4Editor-CoreUObject.dll
 0001:00001faf       ?GetExporterName@UObject@@UEAA?AVFName@@XZ 0000000180002faf f   UE4Editor-CoreUObject:UE4Editor-CoreUObject.dll
 0001:00001fb5       ?GetNativePropertyValues@UObject@@UEBA_NAEAV?$TMap@VFString@@V1@VFDefaultSetAllocator@@U?$TDefaultMapHashableKeyFuncs@VFString@@V1@$0A@@@@@I@Z 0000000180002fb5 f   UE4Editor-CoreUObject:UE4Editor-CoreUObject.dll
 0001:00001fbb       ?GetPreloadDependencies@UObject@@UEAAXAEAV?$TArray@PEAVUObject@@VFDefaultAllocator@@@@@Z 0000000180002fbb f   UE4Editor-CoreUObject:UE4Editor-CoreUObject.dll
 0001:00001fc1       ?GetPrestreamPackages@UObject@@UEAAXAEAV?$TArray@PEAVUObject@@VFDefaultAllocator@@@@@Z 0000000180002fc1 f   UE4Editor-CoreUObject:UE4Editor-CoreUObject.dll
 0001:00001fc7       ?GetPrimaryAssetId@UObject@@UEBA?AUFPrimaryAssetId@@XZ 0000000180002fc7 f   UE4Editor-CoreUObject:UE4Editor-CoreUObject.dll
 0001:00001fcd       ?GetResourceSizeEx@UObject@@UEAAXAEAUFResourceSizeEx@@@Z 0000000180002fcd f   UE4Editor-CoreUObject:UE4Editor-CoreUObject.dll
 0001:00001fd3       ?GetRestoreForUObjectOverwrite@UObject@@UEAAPEAVFRestoreForUObjectOverwrite@@XZ 0000000180002fd3 f   UE4Editor-CoreUObject:UE4Editor-CoreUObject.dll
 0001:00001fd9       ?ImportCustomProperties@UObject@@UEAAXPEB_WPEAVFFeedbackContext@@@Z 0000000180002fd9 f   UE4Editor-CoreUObject:UE4Editor-CoreUObject.dll
 0001:00001fdf       ?IsAsset@UObject@@UEBA_NXZ 0000000180002fdf f   UE4Editor-CoreUObject:UE4Editor-CoreUObject.dll
 0001:00001fe5       ?IsCachedCookedPlatformDataLoaded@UObject@@UEAA_NPEBVITargetPlatform@@@Z 0000000180002fe5 f   UE4Editor-CoreUObject:UE4Editor-CoreUObject.dll
 0001:00001feb       ?IsFullNameStableForNetworking@UObject@@UEBA_NXZ 0000000180002feb f   UE4Editor-CoreUObject:UE4Editor-CoreUObject.dll
 0001:00001ff1       ?IsLocalizedResource@UObject@@UEBA_NXZ 0000000180002ff1 f   UE4Editor-CoreUObject:UE4Editor-CoreUObject.dll
 0001:00001ff7       ?IsPostLoadThreadSafe@UObject@@UEBA_NXZ 0000000180002ff7 f   UE4Editor-CoreUObject:UE4Editor-CoreUObject.dll
 0001:00001ffd       ?IsSafeForRootSet@UObject@@UEBA_NXZ 0000000180002ffd f   UE4Editor-CoreUObject:UE4Editor-CoreUObject.dll
 0001:00002003       ?LoadedFromAnotherClass@UObject@@UEAAXAEBVFName@@@Z 0000000180003003 f   UE4Editor-CoreUObject:UE4Editor-CoreUObject.dll
 0001:00002009       ?MarkAsEditorOnlySubobject@UObject@@UEAAXXZ 0000000180003009 f   UE4Editor-CoreUObject:UE4Editor-CoreUObject.dll
 0001:0000200f       ?NeedsLoadForClient@UObject@@UEBA_NXZ 000000018000300f f   UE4Editor-CoreUObject:UE4Editor-CoreUObject.dll
 0001:00002015       ?NeedsLoadForEditorGame@UObject@@UEBA_NXZ 0000000180003015 f   UE4Editor-CoreUObject:UE4Editor-CoreUObject.dll
 0001:0000201b       ?NeedsLoadForServer@UObject@@UEBA_NXZ 000000018000301b f   UE4Editor-CoreUObject:UE4Editor-CoreUObject.dll
 0001:00002021       ?NotifyObjectReferenceEliminated@UObject@@UEBAXXZ 0000000180003021 f   UE4Editor-CoreUObject:UE4Editor-CoreUObject.dll
 0001:00002027       ?OnClusterMarkedAsPendingKill@UObjectBaseUtility@@UEAAXXZ 0000000180003027 f   UE4Editor-CoreUObject:UE4Editor-CoreUObject.dll
 0001:0000202d       ?PostCDOContruct@UObject@@UEAAXXZ 000000018000302d f   UE4Editor-CoreUObject:UE4Editor-CoreUObject.dll
 0001:00002033       ?PostDuplicate@UObject@@UEAAXW4Type@EDuplicateMode@@@Z 0000000180003033 f   UE4Editor-CoreUObject:UE4Editor-CoreUObject.dll
 0001:00002039       ?PostDuplicate@UObject@@UEAAX_N@Z 0000000180003039 f   UE4Editor-CoreUObject:UE4Editor-CoreUObject.dll
 0001:0000203f       ?PostEditChangeChainProperty@UObject@@UEAAXAEAUFPropertyChangedChainEvent@@@Z 000000018000303f f   UE4Editor-CoreUObject:UE4Editor-CoreUObject.dll
 0001:00002045       ?PostInterpChange@UObject@@UEAAXPEAVUProperty@@@Z 0000000180003045 f   UE4Editor-CoreUObject:UE4Editor-CoreUObject.dll
 0001:0000204b       ?PostLinkerChange@UObject@@UEAAXXZ 000000018000304b f   UE4Editor-CoreUObject:UE4Editor-CoreUObject.dll
 0001:00002051       ?PostReloadConfig@UObject@@UEAAXPEAVUProperty@@@Z 0000000180003051 f   UE4Editor-CoreUObject:UE4Editor-CoreUObject.dll
 0001:00002057       ?PostRepNotifies@UObject@@UEAAXXZ 0000000180003057 f   UE4Editor-CoreUObject:UE4Editor-CoreUObject.dll
 0001:0000205d       ?PostSaveRoot@UObject@@UEAAX_N@Z 000000018000305d f   UE4Editor-CoreUObject:UE4Editor-CoreUObject.dll
 0001:00002063       ?PostTransacted@UObject@@UEAAXAEBVFTransactionObjectEvent@@@Z 0000000180003063 f   UE4Editor-CoreUObject:UE4Editor-CoreUObject.dll
 0001:00002069       ?PreDestroyFromReplication@UObject@@UEAAXXZ 0000000180003069 f   UE4Editor-CoreUObject:UE4Editor-CoreUObject.dll
 0001:0000206f       ?PreEditChange@UObject@@UEAAXAEAVFEditPropertyChain@@@Z 000000018000306f f   UE4Editor-CoreUObject:UE4Editor-CoreUObject.dll
 0001:00002075       ?PreSave@UObject@@UEAAXPEBVITargetPlatform@@@Z 0000000180003075 f   UE4Editor-CoreUObject:UE4Editor-CoreUObject.dll
 0001:0000207b       ?PreSaveRoot@UObject@@UEAA_NPEB_W@Z 000000018000307b f   UE4Editor-CoreUObject:UE4Editor-CoreUObject.dll
 0001:00002081       ?ProcessConsoleExec@UObject@@UEAA_NPEB_WAEAVFOutputDevice@@PEAV1@@Z 0000000180003081 f   UE4Editor-CoreUObject:UE4Editor-CoreUObject.dll
 0001:00002087       ?RegenerateClass@UObject@@UEAAPEAVUClass@@PEAV2@PEAV1@AEAV?$TArray@PEAVUObject@@VFDefaultAllocator@@@@@Z 0000000180003087 f   UE4Editor-CoreUObject:UE4Editor-CoreUObject.dll
 0001:0000208d       ?RegisterDependencies@UObjectBase@@MEAAXXZ 000000018000308d f   UE4Editor-CoreUObject:UE4Editor-CoreUObject.dll
 0001:00002093       ?ShutdownAfterError@UObject@@UEAAXXZ 0000000180003093 f   UE4Editor-CoreUObject:UE4Editor-CoreUObject.dll
 0001:00002099       ?TagSubobjects@UObject@@UEAAXW4EObjectFlags@@@Z 0000000180003099 f   UE4Editor-CoreUObject:UE4Editor-CoreUObject.dll
 0001:0000209f       ?WillNeverCacheCookedPlatformDataAgain@UObject@@UEAAXXZ 000000018000309f f   UE4Editor-CoreUObject:UE4Editor-CoreUObject.dll
 0001:000020a5       ?ConstructUPackage@UE4CodeGen_Private@@YAXAEAPEAVUPackage@@AEBUFPackageParams@1@@Z 00000001800030a5 f   UE4Editor-CoreUObject:UE4Editor-CoreUObject.dll
 0001:000020ab       ?GetConvertedDynamicPackageNameToTypeName@@YAAEAV?$TMap@VFName@@V1@VFDefaultSetAllocator@@U?$TDefaultMapHashableKeyFuncs@VFName@@V1@$0A@@@@@XZ 00000001800030ab f   UE4Editor-CoreUObject:UE4Editor-CoreUObject.dll
 0001:000020b1       ?ConstructUClass@UE4CodeGen_Private@@YAXAEAPEAVUClass@@AEBUFClassParams@1@@Z 00000001800030b1 f   UE4Editor-CoreUObject:UE4Editor-CoreUObject.dll
 0001:000020b7       ?UClassCompiledInDefer@@YAXPEAUFFieldCompiledInInfo@@PEB_W_KI@Z 00000001800030b7 f   UE4Editor-CoreUObject:UE4Editor-CoreUObject.dll
 0001:000020bd       ?UObjectCompiledInDefer@@YAXP6APEAVUClass@@XZ0PEB_W1_N1P6AXAEAV?$TMap@VFName@@V1@VFDefaultSetAllocator@@U?$TDefaultMapHashableKeyFuncs@VFName@@V1@$0A@@@@@@Z@Z 00000001800030bd f   UE4Editor-CoreUObject:UE4Editor-CoreUObject.dll
 0001:000020c3       ?StaticClass@UObject@@SAPEAVUClass@@XZ 00000001800030c3 f   UE4Editor-CoreUObject:UE4Editor-CoreUObject.dll
 0001:000020c9       ?GetPrivateStaticClassBody@@YAXPEB_W0AEAPEAVUClass@@P6AXXZIW4EClassFlags@@W4EClassCastFlags@@0P6AXAEBVFObjectInitializer@@@ZP6APEAVUObject@@AEAVFVTableHelper@@@ZP6AXPEAV5@AEAVFReferenceCollector@@@ZP6APEAV1@XZP6APEAV1@XZ_N@Z 00000001800030c9 f   UE4Editor-CoreUObject:UE4Editor-CoreUObject.dll
 0001:000020f0       __local_stdio_printf_options 00000001800030f0 f i legacy_stdio_wide_specifiers:legacy_stdio_wide_specifiers.obj
 0001:000020f8       __local_stdio_scanf_options 00000001800030f8 f i legacy_stdio_wide_specifiers:legacy_stdio_wide_specifiers.obj
 0001:00002100       ??_M@YAXPEAX_K1P6AX0@Z@Z   0000000180003100 f   MSVCRT:ehvecdtr.obj
 0001:0000216c       ??_M@YAXPEAX_KHP6AX0@Z@Z   000000018000316c f   MSVCRT:ehvecdtr.obj
 0001:00002190       ?__ArrayUnwind@@YAXPEAX_K1P6AX0@Z@Z 0000000180003190 f   MSVCRT:ehvecdtr.obj
 0001:00002540       _CRT_INIT                  0000000180003540 f   MSVCRT:dll_dllmain.obj
 0001:00002548       _DllMainCRTStartup         0000000180003548 f   MSVCRT:dll_dllmain.obj
 0001:00002588       _guard_check_icall_nop     0000000180003588 f i MSVCRT:guard_support.obj
 0001:0000258c       ReadNoFence64              000000018000358c f i MSVCRT:guard_support.obj
 0001:00002590       ReadPointerNoFence         0000000180003590 f i MSVCRT:guard_support.obj
 0001:00002594       _guard_icall_checks_enforced 0000000180003594 f i MSVCRT:guard_support.obj
 0001:000025ac       _guard_rf_checks_enforced  00000001800035ac f i MSVCRT:guard_support.obj
 0001:0000261c       __security_init_cookie     000000018000361c f   MSVCRT:gs_support.obj
 0001:000026c8       DllMain                    00000001800036c8 f   MSVCRT:dll_dllmain_stub.obj
 0001:000026ec       ?__scrt_initialize_type_info@@YAXXZ 00000001800036ec f   MSVCRT:tncleanup.obj
 0001:000026fc       ?__scrt_uninitialize_type_info@@YAXXZ 00000001800036fc f   MSVCRT:tncleanup.obj
 0001:00002708       __scrt_initialize_default_local_stdio_options 0000000180003708 f   MSVCRT:default_local_stdio_options.obj
 0001:00002724       ??$__crt_fast_decode_pointer@PEAP6AXXZ@@YAPEAP6AXXZQEAP6AXXZ@Z 0000000180003724 f i MSVCRT:utility.obj
 0001:0000273c       ??$__crt_fast_encode_pointer@PEAP6AXXZ@@YAPEAP6AXXZQEAP6AXXZ@Z 000000018000373c f i MSVCRT:utility.obj
 0001:0000275c       ?__crt_rotate_pointer_value@@YA_K_KH@Z 000000018000375c f i MSVCRT:utility.obj
 0001:00002768       ?configure_argv@__scrt_narrow_argv_policy@@SAHXZ 0000000180003768 f i MSVCRT:utility.obj
 0001:000027c8       ?initialize_environment@__scrt_narrow_environment_policy@@SAHXZ 00000001800037c8 f i MSVCRT:utility.obj
 0001:00002800       NtCurrentTeb               0000000180003800 f i MSVCRT:utility.obj
 0001:0000280c       __scrt_acquire_startup_lock 000000018000380c f   MSVCRT:utility.obj
 0001:00002848       __scrt_dllmain_after_initialize_c 0000000180003848 f   MSVCRT:utility.obj
 0001:0000287c       __scrt_dllmain_before_initialize_c 000000018000387c f   MSVCRT:utility.obj
 0001:00002894       __scrt_dllmain_crt_thread_attach 0000000180003894 f   MSVCRT:utility.obj
 0001:000028bc       __scrt_dllmain_crt_thread_detach 00000001800038bc f   MSVCRT:utility.obj
 0001:000028d4       __scrt_dllmain_exception_filter 00000001800038d4 f   MSVCRT:utility.obj
 0001:00002934       __scrt_dllmain_uninitialize_c 0000000180003934 f   MSVCRT:utility.obj
 0001:00002964       __scrt_dllmain_uninitialize_critical 0000000180003964 f   MSVCRT:utility.obj
 0001:00002978       __scrt_initialize_crt      0000000180003978 f   MSVCRT:utility.obj
 0001:000029c4       __scrt_initialize_onexit_tables 00000001800039c4 f   MSVCRT:utility.obj
 0001:00002a9c       __scrt_is_nonwritable_in_current_image 0000000180003a9c f   MSVCRT:utility.obj
 0001:00002b38       __scrt_release_startup_lock 0000000180003b38 f   MSVCRT:utility.obj
 0001:00002b5c       __scrt_uninitialize_crt    0000000180003b5c f   MSVCRT:utility.obj
 0001:00002b88       _onexit                    0000000180003b88 f   MSVCRT:utility.obj
 0001:00002bd8       at_quick_exit              0000000180003bd8 f   MSVCRT:utility.obj
 0001:00002c10       atexit                     0000000180003c10 f   MSVCRT:utility.obj
 0001:00002c28       __scrt_get_dyn_tls_init_callback 0000000180003c28 f   MSVCRT:dyn_tls_init.obj
 0001:00002c30       __crt_debugger_hook        0000000180003c30 f   MSVCRT:utility_desktop.obj
 0001:00002c38       __scrt_fastfail            0000000180003c38 f   MSVCRT:utility_desktop.obj
 0001:00002d84       __scrt_get_show_window_mode 0000000180003d84 f   MSVCRT:utility_desktop.obj
 0001:00002dc0       __scrt_initialize_mta      0000000180003dc0 f   MSVCRT:utility_desktop.obj
 0001:00002dc8       __scrt_initialize_winrt    0000000180003dc8 f   MSVCRT:utility_desktop.obj
 0001:00002dcc       __scrt_is_managed_app      0000000180003dcc f   MSVCRT:utility_desktop.obj
 0001:00002e20       __scrt_set_unhandled_exception_filter 0000000180003e20 f   MSVCRT:utility_desktop.obj
 0001:00002e30       __scrt_stub_for_initialize_mta 0000000180003e30 f   MSVCRT:utility_desktop.obj
 0001:00002e30       __scrt_exe_initialize_mta  0000000180003e30 f   MSVCRT:utility_desktop.obj
 0001:00002e34       __scrt_unhandled_exception_filter 0000000180003e34 f   MSVCRT:utility_desktop.obj
 0001:00002e6c       _RTC_Initialize            0000000180003e6c f   MSVCRT:_initsect_.obj
 0001:00002ea8       _RTC_Terminate             0000000180003ea8 f   MSVCRT:_initsect_.obj
 0001:00002ef0       __isa_available_init       0000000180003ef0 f   MSVCRT:_cpu_disp_.obj
 0001:000030ac       _get_startup_argv_mode     00000001800040ac f   MSVCRT:argv_mode.obj
 0001:000030b4       __scrt_is_ucrt_dll_in_use  00000001800040b4 f   MSVCRT:ucrt_detection.obj
 0001:000030c0       __std_terminate            00000001800040c0 f   vcruntime:VCRUNTIME140.dll
 0001:000030c6       __CxxFrameHandler3         00000001800040c6 f   vcruntime:VCRUNTIME140.dll
 0001:000030cc       _purecall                  00000001800040cc f   vcruntime:VCRUNTIME140.dll
 0001:000030d2       memmove                    00000001800040d2 f   vcruntime:VCRUNTIME140.dll
 0001:000030d8       memset                     00000001800040d8 f   vcruntime:VCRUNTIME140.dll
 0001:000030de       __C_specific_handler       00000001800040de f   vcruntime:VCRUNTIME140.dll
 0001:000030e4       __std_type_info_destroy_list 00000001800040e4 f   vcruntime:VCRUNTIME140.dll
 0001:000030ea       terminate                  00000001800040ea f   ucrt:api-ms-win-crt-runtime-l1-1-0.dll
 0001:000030f0       _initterm                  00000001800040f0 f   ucrt:api-ms-win-crt-runtime-l1-1-0.dll
 0001:000030f6       _initterm_e                00000001800040f6 f   ucrt:api-ms-win-crt-runtime-l1-1-0.dll
 0001:000030fc       _seh_filter_dll            00000001800040fc f   ucrt:api-ms-win-crt-runtime-l1-1-0.dll
 0001:00003102       _configure_narrow_argv     0000000180004102 f   ucrt:api-ms-win-crt-runtime-l1-1-0.dll
 0001:00003108       _initialize_narrow_environment 0000000180004108 f   ucrt:api-ms-win-crt-runtime-l1-1-0.dll
 0001:0000310e       _initialize_onexit_table   000000018000410e f   ucrt:api-ms-win-crt-runtime-l1-1-0.dll
 0001:00003114       _register_onexit_function  0000000180004114 f   ucrt:api-ms-win-crt-runtime-l1-1-0.dll
 0001:0000311a       _execute_onexit_table      000000018000411a f   ucrt:api-ms-win-crt-runtime-l1-1-0.dll
 0001:00003120       _crt_atexit                0000000180004120 f   ucrt:api-ms-win-crt-runtime-l1-1-0.dll
 0001:00003126       _crt_at_quick_exit         0000000180004126 f   ucrt:api-ms-win-crt-runtime-l1-1-0.dll
 0001:0000312c       _cexit                     000000018000412c f   ucrt:api-ms-win-crt-runtime-l1-1-0.dll
 0001:00003132       QueryPerformanceCounter    0000000180004132 f   kernel32:KERNEL32.dll
 0001:00003138       GetCurrentProcessId        0000000180004138 f   kernel32:KERNEL32.dll
 0001:0000313e       GetCurrentThreadId         000000018000413e f   kernel32:KERNEL32.dll
 0001:00003144       GetSystemTimeAsFileTime    0000000180004144 f   kernel32:KERNEL32.dll
 0001:0000314a       DisableThreadLibraryCalls  000000018000414a f   kernel32:KERNEL32.dll
 0001:00003150       InitializeSListHead        0000000180004150 f   kernel32:KERNEL32.dll
 0001:00003156       RtlCaptureContext          0000000180004156 f   kernel32:KERNEL32.dll
 0001:0000315c       RtlLookupFunctionEntry     000000018000415c f   kernel32:KERNEL32.dll
 0001:00003162       RtlVirtualUnwind           0000000180004162 f   kernel32:KERNEL32.dll
 0001:00003168       IsDebuggerPresent          0000000180004168 f   kernel32:KERNEL32.dll
 0001:0000316e       UnhandledExceptionFilter   000000018000416e f   kernel32:KERNEL32.dll
 0001:00003174       SetUnhandledExceptionFilter 0000000180004174 f   kernel32:KERNEL32.dll
 0001:0000317a       GetStartupInfoW            000000018000417a f   kernel32:KERNEL32.dll
 0001:00003180       IsProcessorFeaturePresent  0000000180004180 f   kernel32:KERNEL32.dll
 0001:00003186       GetModuleHandleW           0000000180004186 f   kernel32:KERNEL32.dll
 0001:0000318c       __scrt_stub_for_acrt_initialize 000000018000418c f   MSVCRT:ucrt_stubs.obj
 0001:0000318c       __acrt_initialize          000000018000418c f   MSVCRT:ucrt_stubs.obj
 0001:0000318c       __vcrt_initialize          000000018000418c f   MSVCRT:ucrt_stubs.obj
 0001:00003190       __vcrt_thread_attach       0000000180004190 f   MSVCRT:ucrt_stubs.obj
 0001:00003190       __scrt_stub_for_acrt_thread_attach 0000000180004190 f   MSVCRT:ucrt_stubs.obj
 0001:00003190       __acrt_thread_attach       0000000180004190 f   MSVCRT:ucrt_stubs.obj
 0001:00003194       __scrt_stub_for_acrt_thread_detach 0000000180004194 f   MSVCRT:ucrt_stubs.obj
 0001:00003194       __vcrt_thread_detach       0000000180004194 f   MSVCRT:ucrt_stubs.obj
 0001:00003194       __acrt_thread_detach       0000000180004194 f   MSVCRT:ucrt_stubs.obj
 0001:00003198       __vcrt_uninitialize        0000000180004198 f   MSVCRT:ucrt_stubs.obj
 0001:00003198       __scrt_stub_for_acrt_uninitialize 0000000180004198 f   MSVCRT:ucrt_stubs.obj
 0001:00003198       __acrt_uninitialize        0000000180004198 f   MSVCRT:ucrt_stubs.obj
 0001:0000319c       __acrt_uninitialize_critical 000000018000419c f   MSVCRT:ucrt_stubs.obj
 0001:0000319c       __vcrt_uninitialize_critical 000000018000419c f   MSVCRT:ucrt_stubs.obj
 0001:0000319c       __scrt_stub_for_acrt_uninitialize_critical 000000018000419c f   MSVCRT:ucrt_stubs.obj
 0001:000031a0       __scrt_stub_for_is_c_termination_complete 00000001800041a0 f   MSVCRT:ucrt_stubs.obj
 0001:000031a0       _is_c_termination_complete 00000001800041a0 f   MSVCRT:ucrt_stubs.obj
 0001:000031c0       _guard_dispatch_icall_nop  00000001800041c0 f   MSVCRT:_guard_dispatch_.obj
 0002:00000000       __imp_QueryPerformanceCounter 0000000180005000     kernel32:KERNEL32.dll
 0002:00000008       __imp_GetCurrentProcessId  0000000180005008     kernel32:KERNEL32.dll
 0002:00000010       __imp_GetCurrentThreadId   0000000180005010     kernel32:KERNEL32.dll
 0002:00000018       __imp_GetSystemTimeAsFileTime 0000000180005018     kernel32:KERNEL32.dll
 0002:00000020       __imp_DisableThreadLibraryCalls 0000000180005020     kernel32:KERNEL32.dll
 0002:00000028       __imp_InitializeSListHead  0000000180005028     kernel32:KERNEL32.dll
 0002:00000030       __imp_RtlCaptureContext    0000000180005030     kernel32:KERNEL32.dll
 0002:00000038       __imp_RtlLookupFunctionEntry 0000000180005038     kernel32:KERNEL32.dll
 0002:00000040       __imp_RtlVirtualUnwind     0000000180005040     kernel32:KERNEL32.dll
 0002:00000048       __imp_IsDebuggerPresent    0000000180005048     kernel32:KERNEL32.dll
 0002:00000050       __imp_UnhandledExceptionFilter 0000000180005050     kernel32:KERNEL32.dll
 0002:00000058       __imp_SetUnhandledExceptionFilter 0000000180005058     kernel32:KERNEL32.dll
 0002:00000060       __imp_GetStartupInfoW      0000000180005060     kernel32:KERNEL32.dll
 0002:00000068       __imp_IsProcessorFeaturePresent 0000000180005068     kernel32:KERNEL32.dll
 0002:00000070       __imp_GetModuleHandleW     0000000180005070     kernel32:KERNEL32.dll
 0002:00000078       \177KERNEL32_NULL_THUNK_DATA 0000000180005078     kernel32:KERNEL32.dll
 0002:00000080       __imp_?GCoreObjectArrayForDebugVisualizers@@3PEAVFChunkedFixedUObjectArray@@EA 0000000180005080     UE4Editor-Core:UE4Editor-Core.dll
 0002:00000088       __imp_?Free@FMemory@@SAXPEAX@Z 0000000180005088     UE4Editor-Core:UE4Editor-Core.dll
 0002:00000090       __imp_?GetNameTableForDebuggerVisualizers_MT@FName@@SAPEAPEAPEAUFNameEntry@@XZ 0000000180005090     UE4Editor-Core:UE4Editor-Core.dll
 0002:00000098       __imp_?ZeroVector@FVector@@2U1@B 0000000180005098     UE4Editor-Core:UE4Editor-Core.dll
 0002:000000a0       __imp_?IsDebuggerPresent@FWindowsPlatformMisc@@SA_NXZ 00000001800050a0     UE4Editor-Core:UE4Editor-Core.dll
 0002:000000a8       __imp_?PromptForRemoteDebugging@FWindowsPlatformMisc@@SAX_N@Z 00000001800050a8     UE4Editor-Core:UE4Editor-Core.dll
 0002:000000b0       __imp_?AssertFailed@FDebug@@SAXPEBD0HPEB_WZZ 00000001800050b0     UE4Editor-Core:UE4Editor-Core.dll
 0002:000000b8       __imp_?LogAssertFailedMessageImpl@FDebug@@CAXPEBD0HPEB_WZZ 00000001800050b8     UE4Editor-Core:UE4Editor-Core.dll
 0002:000000c0       __imp_?Realloc@FMemory@@SAPEAXPEAX_KI@Z 00000001800050c0     UE4Editor-Core:UE4Editor-Core.dll
 0002:000000c8       __imp_?QuantizeSize@FMemory@@SA_K_KI@Z 00000001800050c8     UE4Editor-Core:UE4Editor-Core.dll
 0002:000000d0       __imp_??0FName@@QEAA@PEB_WW4EFindName@@@Z 00000001800050d0     UE4Editor-Core:UE4Editor-Core.dll
 0002:000000d8       __imp_??0FLLMScope@@QEAA@W4ELLMTag@@W4ELLMTagSet@@W4ELLMTracker@@@Z 00000001800050d8     UE4Editor-Core:UE4Editor-Core.dll
 0002:000000e0       __imp_??1FLLMScope@@QEAA@XZ 00000001800050e0     UE4Editor-Core:UE4Editor-Core.dll
 0002:000000e8       __imp_?Malloc@FMemory@@SAPEAX_KI@Z 00000001800050e8     UE4Editor-Core:UE4Editor-Core.dll
 0002:000000f0       \177UE4Editor-Core_NULL_THUNK_DATA 00000001800050f0     UE4Editor-Core:UE4Editor-Core.dll
 0002:000000f8       __imp_?PreEditChange@UObject@@UEAAXAEAVFEditPropertyChain@@@Z 00000001800050f8     UE4Editor-CoreUObject:UE4Editor-CoreUObject.dll
 0002:00000100       __imp_?PreDestroyFromReplication@UObject@@UEAAXXZ 0000000180005100     UE4Editor-CoreUObject:UE4Editor-CoreUObject.dll
 0002:00000108       __imp_?PostTransacted@UObject@@UEAAXAEBVFTransactionObjectEvent@@@Z 0000000180005108     UE4Editor-CoreUObject:UE4Editor-CoreUObject.dll
 0002:00000110       __imp_?PostSaveRoot@UObject@@UEAAX_N@Z 0000000180005110     UE4Editor-CoreUObject:UE4Editor-CoreUObject.dll
 0002:00000118       __imp_?PostRepNotifies@UObject@@UEAAXXZ 0000000180005118     UE4Editor-CoreUObject:UE4Editor-CoreUObject.dll
 0002:00000120       __imp_?PostReloadConfig@UObject@@UEAAXPEAVUProperty@@@Z 0000000180005120     UE4Editor-CoreUObject:UE4Editor-CoreUObject.dll
 0002:00000128       __imp_?PostLinkerChange@UObject@@UEAAXXZ 0000000180005128     UE4Editor-CoreUObject:UE4Editor-CoreUObject.dll
 0002:00000130       __imp_?PostInterpChange@UObject@@UEAAXPEAVUProperty@@@Z 0000000180005130     UE4Editor-CoreUObject:UE4Editor-CoreUObject.dll
 0002:00000138       __imp_?PostEditChangeChainProperty@UObject@@UEAAXAEAUFPropertyChangedChainEvent@@@Z 0000000180005138     UE4Editor-CoreUObject:UE4Editor-CoreUObject.dll
 0002:00000140       __imp_?PostDuplicate@UObject@@UEAAX_N@Z 0000000180005140     UE4Editor-CoreUObject:UE4Editor-CoreUObject.dll
 0002:00000148       __imp_?PostDuplicate@UObject@@UEAAXW4Type@EDuplicateMode@@@Z 0000000180005148     UE4Editor-CoreUObject:UE4Editor-CoreUObject.dll
 0002:00000150       __imp_?PostCDOContruct@UObject@@UEAAXXZ 0000000180005150     UE4Editor-CoreUObject:UE4Editor-CoreUObject.dll
 0002:00000158       __imp_?OnClusterMarkedAsPendingKill@UObjectBaseUtility@@UEAAXXZ 0000000180005158     UE4Editor-CoreUObject:UE4Editor-CoreUObject.dll
 0002:00000160       __imp_?NotifyObjectReferenceEliminated@UObject@@UEBAXXZ 0000000180005160     UE4Editor-CoreUObject:UE4Editor-CoreUObject.dll
 0002:00000168       __imp_?NeedsLoadForServer@UObject@@UEBA_NXZ 0000000180005168     UE4Editor-CoreUObject:UE4Editor-CoreUObject.dll
 0002:00000170       __imp_?NeedsLoadForEditorGame@UObject@@UEBA_NXZ 0000000180005170     UE4Editor-CoreUObject:UE4Editor-CoreUObject.dll
 0002:00000178       __imp_?NeedsLoadForClient@UObject@@UEBA_NXZ 0000000180005178     UE4Editor-CoreUObject:UE4Editor-CoreUObject.dll
 0002:00000180       __imp_?MarkAsEditorOnlySubobject@UObject@@UEAAXXZ 0000000180005180     UE4Editor-CoreUObject:UE4Editor-CoreUObject.dll
 0002:00000188       __imp_?LoadedFromAnotherClass@UObject@@UEAAXAEBVFName@@@Z 0000000180005188     UE4Editor-CoreUObject:UE4Editor-CoreUObject.dll
 0002:00000190       __imp_?IsSafeForRootSet@UObject@@UEBA_NXZ 0000000180005190     UE4Editor-CoreUObject:UE4Editor-CoreUObject.dll
 0002:00000198       __imp_?IsPostLoadThreadSafe@UObject@@UEBA_NXZ 0000000180005198     UE4Editor-CoreUObject:UE4Editor-CoreUObject.dll
 0002:000001a0       __imp_?IsLocalizedResource@UObject@@UEBA_NXZ 00000001800051a0     UE4Editor-CoreUObject:UE4Editor-CoreUObject.dll
 0002:000001a8       __imp_?IsFullNameStableForNetworking@UObject@@UEBA_NXZ 00000001800051a8     UE4Editor-CoreUObject:UE4Editor-CoreUObject.dll
 0002:000001b0       __imp_?IsCachedCookedPlatformDataLoaded@UObject@@UEAA_NPEBVITargetPlatform@@@Z 00000001800051b0     UE4Editor-CoreUObject:UE4Editor-CoreUObject.dll
 0002:000001b8       __imp_?IsAsset@UObject@@UEBA_NXZ 00000001800051b8     UE4Editor-CoreUObject:UE4Editor-CoreUObject.dll
 0002:000001c0       __imp_?ImportCustomProperties@UObject@@UEAAXPEB_WPEAVFFeedbackContext@@@Z 00000001800051c0     UE4Editor-CoreUObject:UE4Editor-CoreUObject.dll
 0002:000001c8       __imp_?PreSaveRoot@UObject@@UEAA_NPEB_W@Z 00000001800051c8     UE4Editor-CoreUObject:UE4Editor-CoreUObject.dll
 0002:000001d0       __imp_?GetResourceSizeEx@UObject@@UEAAXAEAUFResourceSizeEx@@@Z 00000001800051d0     UE4Editor-CoreUObject:UE4Editor-CoreUObject.dll
 0002:000001d8       __imp_?GetPrimaryAssetId@UObject@@UEBA?AUFPrimaryAssetId@@XZ 00000001800051d8     UE4Editor-CoreUObject:UE4Editor-CoreUObject.dll
 0002:000001e0       __imp_?GetPrestreamPackages@UObject@@UEAAXAEAV?$TArray@PEAVUObject@@VFDefaultAllocator@@@@@Z 00000001800051e0     UE4Editor-CoreUObject:UE4Editor-CoreUObject.dll
 0002:000001e8       __imp_?GetPreloadDependencies@UObject@@UEAAXAEAV?$TArray@PEAVUObject@@VFDefaultAllocator@@@@@Z 00000001800051e8     UE4Editor-CoreUObject:UE4Editor-CoreUObject.dll
 0002:000001f0       __imp_?GetNativePropertyValues@UObject@@UEBA_NAEAV?$TMap@VFString@@V1@VFDefaultSetAllocator@@U?$TDefaultMapHashableKeyFuncs@VFString@@V1@$0A@@@@@I@Z 00000001800051f0     UE4Editor-CoreUObject:UE4Editor-CoreUObject.dll
 0002:000001f8       __imp_?GetExporterName@UObject@@UEAA?AVFName@@XZ 00000001800051f8     UE4Editor-CoreUObject:UE4Editor-CoreUObject.dll
 0002:00000200       __imp_?GetDetailedInfoInternal@UObject@@MEBA?AVFString@@XZ 0000000180005200     UE4Editor-CoreUObject:UE4Editor-CoreUObject.dll
 0002:00000208       __imp_?GetDesc@UObject@@UEAA?AVFString@@XZ 0000000180005208     UE4Editor-CoreUObject:UE4Editor-CoreUObject.dll
 0002:00000210       __imp_?GetConfigOverridePlatform@UObject@@UEBAPEB_WXZ 0000000180005210     UE4Editor-CoreUObject:UE4Editor-CoreUObject.dll
 0002:00000218       __imp_?GetAssetRegistryTags@UObject@@UEBAXAEAV?$TArray@UFAssetRegistryTag@UObject@@VFDefaultAllocator@@@@@Z 0000000180005218     UE4Editor-CoreUObject:UE4Editor-CoreUObject.dll
 0002:00000220       __imp_?GetAssetRegistryTagMetadata@UObject@@UEBAXAEAV?$TMap@VFName@@UFAssetRegistryTagMetadata@UObject@@VFDefaultSetAllocator@@U?$TDefaultMapHashableKeyFuncs@VFName@@UFAssetRegistryTagMetadata@UObject@@$0A@@@@@@Z 0000000180005220     UE4Editor-CoreUObject:UE4Editor-CoreUObject.dll
 0002:00000228       __imp_?FinishDestroy@UObject@@UEAAXXZ 0000000180005228     UE4Editor-CoreUObject:UE4Editor-CoreUObject.dll
 0002:00000230       __imp_?ExportCustomProperties@UObject@@UEAAXAEAVFOutputDevice@@I@Z 0000000180005230     UE4Editor-CoreUObject:UE4Editor-CoreUObject.dll
 0002:00000238       __imp_?DeferredRegister@UObjectBase@@MEAAXPEAVUClass@@PEB_W1@Z 0000000180005238     UE4Editor-CoreUObject:UE4Editor-CoreUObject.dll
 0002:00000240       __imp_?CreateCluster@UObjectBaseUtility@@UEAAXXZ 0000000180005240     UE4Editor-CoreUObject:UE4Editor-CoreUObject.dll
 0002:00000248       __imp_?CookAdditionalFiles@UObject@@UEAAXPEB_WPEBVITargetPlatform@@@Z 0000000180005248     UE4Editor-CoreUObject:UE4Editor-CoreUObject.dll
 0002:00000250       __imp_?ClearCachedCookedPlatformData@UObject@@UEAAXPEBVITargetPlatform@@@Z 0000000180005250     UE4Editor-CoreUObject:UE4Editor-CoreUObject.dll
 0002:00000258       __imp_?ClearAllCachedCookedPlatformData@UObject@@UEAAXXZ 0000000180005258     UE4Editor-CoreUObject:UE4Editor-CoreUObject.dll
 0002:00000260       __imp_?CanEditChange@UObject@@UEBA_NPEBVUProperty@@@Z 0000000180005260     UE4Editor-CoreUObject:UE4Editor-CoreUObject.dll
 0002:00000268       __imp_?CanBeClusterRoot@UObjectBaseUtility@@UEBA_NXZ 0000000180005268     UE4Editor-CoreUObject:UE4Editor-CoreUObject.dll
 0002:00000270       __imp_?BuildSubobjectMapping@UObject@@UEBAXPEAV1@AEAV?$TMap@PEAVUObject@@PEAV1@VFDefaultSetAllocator@@U?$TDefaultMapHashableKeyFuncs@PEAVUObject@@PEAV1@$0A@@@@@@Z 0000000180005270     UE4Editor-CoreUObject:UE4Editor-CoreUObject.dll
 0002:00000278       __imp_?BeginCacheForCookedPlatformData@UObject@@UEAAXPEBVITargetPlatform@@@Z 0000000180005278     UE4Editor-CoreUObject:UE4Editor-CoreUObject.dll
 0002:00000280       __imp_?AreNativePropertiesIdenticalTo@UObject@@UEBA_NPEAV1@@Z 0000000180005280     UE4Editor-CoreUObject:UE4Editor-CoreUObject.dll
 0002:00000288       __imp_?Get@FObjectInitializer@@SAAEAV1@XZ 0000000180005288     UE4Editor-CoreUObject:UE4Editor-CoreUObject.dll
 0002:00000290       __imp_?StaticAllocateObject@@YAPEAVUObject@@PEAVUClass@@PEAV1@VFName@@W4EObjectFlags@@W4EInternalObjectFlags@@_NPEA_N@Z 0000000180005290     UE4Editor-CoreUObject:UE4Editor-CoreUObject.dll
 0002:00000298       __imp_?GetTransientPackage@@YAPEAVUPackage@@XZ 0000000180005298     UE4Editor-CoreUObject:UE4Editor-CoreUObject.dll
 0002:000002a0       __imp_?PreSave@UObject@@UEAAXPEBVITargetPlatform@@@Z 00000001800052a0     UE4Editor-CoreUObject:UE4Editor-CoreUObject.dll
 0002:000002a8       __imp_?ProcessConsoleExec@UObject@@UEAA_NPEB_WAEAVFOutputDevice@@PEAV1@@Z 00000001800052a8     UE4Editor-CoreUObject:UE4Editor-CoreUObject.dll
 0002:000002b0       __imp_?RegenerateClass@UObject@@UEAAPEAVUClass@@PEAV2@PEAV1@AEAV?$TArray@PEAVUObject@@VFDefaultAllocator@@@@@Z 00000001800052b0     UE4Editor-CoreUObject:UE4Editor-CoreUObject.dll
 0002:000002b8       __imp_?RegisterDependencies@UObjectBase@@MEAAXXZ 00000001800052b8     UE4Editor-CoreUObject:UE4Editor-CoreUObject.dll
 0002:000002c0       __imp_?ShutdownAfterError@UObject@@UEAAXXZ 00000001800052c0     UE4Editor-CoreUObject:UE4Editor-CoreUObject.dll
 0002:000002c8       __imp_?TagSubobjects@UObject@@UEAAXW4EObjectFlags@@@Z 00000001800052c8     UE4Editor-CoreUObject:UE4Editor-CoreUObject.dll
 0002:000002d0       __imp_?WillNeverCacheCookedPlatformDataAgain@UObject@@UEAAXXZ 00000001800052d0     UE4Editor-CoreUObject:UE4Editor-CoreUObject.dll
 0002:000002d8       __imp_?ConstructUPackage@UE4CodeGen_Private@@YAXAEAPEAVUPackage@@AEBUFPackageParams@1@@Z 00000001800052d8     UE4Editor-CoreUObject:UE4Editor-CoreUObject.dll
 0002:000002e0       __imp_?GetConvertedDynamicPackageNameToTypeName@@YAAEAV?$TMap@VFName@@V1@VFDefaultSetAllocator@@U?$TDefaultMapHashableKeyFuncs@VFName@@V1@$0A@@@@@XZ 00000001800052e0     UE4Editor-CoreUObject:UE4Editor-CoreUObject.dll
 0002:000002e8       __imp_?ConstructUClass@UE4CodeGen_Private@@YAXAEAPEAVUClass@@AEBUFClassParams@1@@Z 00000001800052e8     UE4Editor-CoreUObject:UE4Editor-CoreUObject.dll
 0002:000002f0       __imp_?UClassCompiledInDefer@@YAXPEAUFFieldCompiledInInfo@@PEB_W_KI@Z 00000001800052f0     UE4Editor-CoreUObject:UE4Editor-CoreUObject.dll
 0002:000002f8       __imp_?UObjectCompiledInDefer@@YAXP6APEAVUClass@@XZ0PEB_W1_N1P6AXAEAV?$TMap@VFName@@V1@VFDefaultSetAllocator@@U?$TDefaultMapHashableKeyFuncs@VFName@@V1@$0A@@@@@@Z@Z 00000001800052f8     UE4Editor-CoreUObject:UE4Editor-CoreUObject.dll
 0002:00000300       __imp_?StaticClass@UObject@@SAPEAVUClass@@XZ 0000000180005300     UE4Editor-CoreUObject:UE4Editor-CoreUObject.dll
 0002:00000308       __imp_?GetRestoreForUObjectOverwrite@UObject@@UEAAPEAVFRestoreForUObjectOverwrite@@XZ 0000000180005308     UE4Editor-CoreUObject:UE4Editor-CoreUObject.dll
 0002:00000310       __imp_?GetPrivateStaticClassBody@@YAXPEB_W0AEAPEAVUClass@@P6AXXZIW4EClassFlags@@W4EClassCastFlags@@0P6AXAEBVFObjectInitializer@@@ZP6APEAVUObject@@AEAVFVTableHelper@@@ZP6AXPEAV5@AEAVFReferenceCollector@@@ZP6APEAV1@XZP6APEAV1@XZ_N@Z 0000000180005310     UE4Editor-CoreUObject:UE4Editor-CoreUObject.dll
 0002:00000318       \177UE4Editor-CoreUObject_NULL_THUNK_DATA 0000000180005318     UE4Editor-CoreUObject:UE4Editor-CoreUObject.dll
 0002:00000320       __imp_?HasActiveCameraComponent@AActor@@UEBA_NXZ 0000000180005320     UE4Editor-Engine:UE4Editor-Engine.dll
 0002:00000328       __imp_?HasActivePawnControlCameraComponent@AActor@@UEBA_NXZ 0000000180005328     UE4Editor-Engine:UE4Editor-Engine.dll
 0002:00000330       __imp_?HasNetOwner@AActor@@MEBA_NXZ 0000000180005330     UE4Editor-Engine:UE4Editor-Engine.dll
 0002:00000338       __imp_?InFreeCam@APawn@@UEBA_NXZ 0000000180005338     UE4Editor-Engine:UE4Editor-Engine.dll
 0002:00000340       __imp_?InternalTakePointDamage@AActor@@MEAAMMAEBUFPointDamageEvent@@PEAVAController@@PEAV1@@Z 0000000180005340     UE4Editor-Engine:UE4Editor-Engine.dll
 0002:00000348       __imp_?InternalTakeRadialDamage@AActor@@MEAAMMAEBUFRadialDamageEvent@@PEAVAController@@PEAV1@@Z 0000000180005348     UE4Editor-Engine:UE4Editor-Engine.dll
 0002:00000350       __imp_?InvalidateLightingCacheDetailed@AActor@@UEAAX_N@Z 0000000180005350     UE4Editor-Engine:UE4Editor-Engine.dll
 0002:00000358       __imp_?IsAttachedTo@AActor@@UEBA_NPEBV1@@Z 0000000180005358     UE4Editor-Engine:UE4Editor-Engine.dll
 0002:00000360       __imp_?IsBasedOnActor@APawn@@UEBA_NPEBVAActor@@@Z 0000000180005360     UE4Editor-Engine:UE4Editor-Engine.dll
 0002:00000368       __imp_?IsComponentRelevantForNavigation@AActor@@UEBA_NPEAVUActorComponent@@@Z 0000000180005368     UE4Editor-Engine:UE4Editor-Engine.dll
 0002:00000370       __imp_?IsDataValid@AActor@@UEAA?AW4EDataValidationResult@@AEAV?$TArray@VFText@@VFDefaultAllocator@@@@@Z 0000000180005370     UE4Editor-Engine:UE4Editor-Engine.dll
 0002:00000378       __imp_?IsEditorOnly@AActor@@UEBA_NXZ 0000000180005378     UE4Editor-Engine:UE4Editor-Engine.dll
 0002:00000380       __imp_?IsJumpProvidingForce@ACharacter@@UEBA_NXZ 0000000180005380     UE4Editor-Engine:UE4Editor-Engine.dll
 0002:00000388       __imp_?IsLevelBoundsRelevant@AActor@@UEBA_NXZ 0000000180005388     UE4Editor-Engine:UE4Editor-Engine.dll
 0002:00000390       __imp_?IsListedInSceneOutliner@AActor@@UEBA_NXZ 0000000180005390     UE4Editor-Engine:UE4Editor-Engine.dll
 0002:00000398       __imp_?IsLocallyControlled@APawn@@UEBA_NXZ 0000000180005398     UE4Editor-Engine:UE4Editor-Engine.dll
 0002:000003a0       __imp_?IsMoveInputIgnored@APawn@@UEBA_NXZ 00000001800053a0     UE4Editor-Engine:UE4Editor-Engine.dll
 0002:000003a8       __imp_?IsNameStableForNetworking@AActor@@UEBA_NXZ 00000001800053a8     UE4Editor-Engine:UE4Editor-Engine.dll
 0002:000003b0       __imp_?IsNetRelevantFor@APawn@@UEBA_NPEBVAActor@@0AEBUFVector@@@Z 00000001800053b0     UE4Editor-Engine:UE4Editor-Engine.dll
 0002:000003b8       __imp_?IsPlayerControlled@APawn@@UEBA_NXZ 00000001800053b8     UE4Editor-Engine:UE4Editor-Engine.dll
 0002:000003c0       __imp_?IsReadyForFinishDestroy@AActor@@UEAA_NXZ 00000001800053c0     UE4Editor-Engine:UE4Editor-Engine.dll
 0002:000003c8       __imp_?IsRelevancyOwnerFor@AActor@@UEBA_NPEBV1@00@Z 00000001800053c8     UE4Editor-Engine:UE4Editor-Engine.dll
 0002:000003d0       __imp_?IsReplayRelevantFor@AActor@@UEBA_NPEBV1@0AEBUFVector@@M@Z 00000001800053d0     UE4Editor-Engine:UE4Editor-Engine.dll
 0002:000003d8       __imp_?IsReplicationPausedForConnection@AActor@@UEAA_NAEBUFNetViewer@@@Z 00000001800053d8     UE4Editor-Engine:UE4Editor-Engine.dll
 0002:000003e0       __imp_?IsRootComponentCollisionRegistered@AActor@@UEBA_NXZ 00000001800053e0     UE4Editor-Engine:UE4Editor-Engine.dll
 0002:000003e8       __imp_?IsSelectable@AActor@@UEBA_NXZ 00000001800053e8     UE4Editor-Engine:UE4Editor-Engine.dll
 0002:000003f0       __imp_?IsSelectedInEditor@AActor@@UEBA_NXZ 00000001800053f0     UE4Editor-Engine:UE4Editor-Engine.dll
 0002:000003f8       __imp_?IsSupportedForNetworking@AActor@@UEBA_NXZ 00000001800053f8     UE4Editor-Engine:UE4Editor-Engine.dll
 0002:00000400       __imp_?Jump@ACharacter@@UEAAXXZ 0000000180005400     UE4Editor-Engine:UE4Editor-Engine.dll
 0002:00000408       __imp_?K2_DestroyActor@AActor@@UEAAXXZ 0000000180005408     UE4Editor-Engine:UE4Editor-Engine.dll
 0002:00000410       __imp_?Landed@ACharacter@@UEAAXAEBUFHitResult@@@Z 0000000180005410     UE4Editor-Engine:UE4Editor-Engine.dll
 0002:00000418       __imp_?LaunchCharacter@ACharacter@@UEAAXUFVector@@_N1@Z 0000000180005418     UE4Editor-Engine:UE4Editor-Engine.dll
 0002:00000420       __imp_?LifeSpanExpired@AActor@@UEAAXXZ 0000000180005420     UE4Editor-Engine:UE4Editor-Engine.dll
 0002:00000428       __imp_?MarkComponentsAsPendingKill@AActor@@UEAAXXZ 0000000180005428     UE4Editor-Engine:UE4Editor-Engine.dll
 0002:00000430       __imp_?Modify@AActor@@UEAA_N_N@Z 0000000180005430     UE4Editor-Engine:UE4Editor-Engine.dll
 0002:00000438       __imp_?MoveBlockedBy@ACharacter@@UEAAXAEBUFHitResult@@@Z 0000000180005438     UE4Editor-Engine:UE4Editor-Engine.dll
 0002:00000440       __imp_?NeedsLoadForTargetPlatform@AActor@@UEBA_NPEBVITargetPlatform@@@Z 0000000180005440     UE4Editor-Engine:UE4Editor-Engine.dll
 0002:00000448       __imp_?NotifyActorBeginCursorOver@AActor@@UEAAXXZ 0000000180005448     UE4Editor-Engine:UE4Editor-Engine.dll
 0002:00000450       __imp_?NotifyActorBeginOverlap@ACharacter@@UEAAXPEAVAActor@@@Z 0000000180005450     UE4Editor-Engine:UE4Editor-Engine.dll
 0002:00000458       __imp_?NotifyActorEndCursorOver@AActor@@UEAAXXZ 0000000180005458     UE4Editor-Engine:UE4Editor-Engine.dll
 0002:00000460       __imp_?NotifyActorEndOverlap@ACharacter@@UEAAXPEAVAActor@@@Z 0000000180005460     UE4Editor-Engine:UE4Editor-Engine.dll
 0002:00000468       __imp_?NotifyActorOnClicked@AActor@@UEAAXUFKey@@@Z 0000000180005468     UE4Editor-Engine:UE4Editor-Engine.dll
 0002:00000470       __imp_?NotifyActorOnInputTouchBegin@AActor@@UEAAXW4Type@ETouchIndex@@@Z 0000000180005470     UE4Editor-Engine:UE4Editor-Engine.dll
 0002:00000478       __imp_?NotifyActorOnInputTouchEnd@AActor@@UEAAXW4Type@ETouchIndex@@@Z 0000000180005478     UE4Editor-Engine:UE4Editor-Engine.dll
 0002:00000480       __imp_?NotifyActorOnInputTouchEnter@AActor@@UEAAXW4Type@ETouchIndex@@@Z 0000000180005480     UE4Editor-Engine:UE4Editor-Engine.dll
 0002:00000488       __imp_?NotifyActorOnInputTouchLeave@AActor@@UEAAXW4Type@ETouchIndex@@@Z 0000000180005488     UE4Editor-Engine:UE4Editor-Engine.dll
 0002:00000490       __imp_?NotifyActorOnReleased@AActor@@UEAAXUFKey@@@Z 0000000180005490     UE4Editor-Engine:UE4Editor-Engine.dll
 0002:00000498       __imp_?NotifyHit@AActor@@UEAAXPEAVUPrimitiveComponent@@PEAV1@0_NUFVector@@33AEBUFHitResult@@@Z 0000000180005498     UE4Editor-Engine:UE4Editor-Engine.dll
 0002:000004a0       __imp_?NotifyJumpApex@ACharacter@@UEAAXXZ 00000001800054a0     UE4Editor-Engine:UE4Editor-Engine.dll
 0002:000004a8       __imp_?OnActorChannelOpen@AActor@@UEAAXAEAVFInBunch@@PEAVUNetConnection@@@Z 00000001800054a8     UE4Editor-Engine:UE4Editor-Engine.dll
 0002:000004b0       __imp_?OnConstruction@AActor@@UEAAXAEBUFTransform@@@Z 00000001800054b0     UE4Editor-Engine:UE4Editor-Engine.dll
 0002:000004b8       __imp_?OnEndCrouch@ACharacter@@UEAAXMM@Z 00000001800054b8     UE4Editor-Engine:UE4Editor-Engine.dll
 0002:000004c0       __imp_?OnJumped_Implementation@ACharacter@@UEAAXXZ 00000001800054c0     UE4Editor-Engine:UE4Editor-Engine.dll
 0002:000004c8       __imp_?OnMovementModeChanged@ACharacter@@UEAAXW4EMovementMode@@E@Z 00000001800054c8     UE4Editor-Engine:UE4Editor-Engine.dll
 0002:000004d0       __imp_?OnNetCleanup@AActor@@UEAAXPEAVUNetConnection@@@Z 00000001800054d0     UE4Editor-Engine:UE4Editor-Engine.dll
 0002:000004d8       __imp_?OnRep_AttachmentReplication@AActor@@UEAAXXZ 00000001800054d8     UE4Editor-Engine:UE4Editor-Engine.dll
 0002:000004e0       __imp_?OnRep_Controller@APawn@@UEAAXXZ 00000001800054e0     UE4Editor-Engine:UE4Editor-Engine.dll
 0002:000004e8       __imp_?OnRep_Instigator@AActor@@UEAAXXZ 00000001800054e8     UE4Editor-Engine:UE4Editor-Engine.dll
 0002:000004f0       __imp_?OnRep_IsCrouched@ACharacter@@UEAAXXZ 00000001800054f0     UE4Editor-Engine:UE4Editor-Engine.dll
 0002:000004f8       __imp_?OnRep_Owner@AActor@@MEAAXXZ 00000001800054f8     UE4Editor-Engine:UE4Editor-Engine.dll
 0002:00000500       __imp_?OnRep_PlayerState@APawn@@UEAAXXZ 0000000180005500     UE4Editor-Engine:UE4Editor-Engine.dll
 0002:00000508       __imp_?OnRep_ReplicateMovement@AActor@@UEAAXXZ 0000000180005508     UE4Editor-Engine:UE4Editor-Engine.dll
 0002:00000510       __imp_?OnRep_ReplicatedBasedMovement@ACharacter@@UEAAXXZ 0000000180005510     UE4Editor-Engine:UE4Editor-Engine.dll
 0002:00000518       __imp_?OnRep_ReplicatedMovement@ACharacter@@UEAAXXZ 0000000180005518     UE4Editor-Engine:UE4Editor-Engine.dll
 0002:00000520       __imp_?OnReplicationPausedChanged@AActor@@UEAAX_N@Z 0000000180005520     UE4Editor-Engine:UE4Editor-Engine.dll
 0002:00000528       __imp_?OnSerializeNewActor@AActor@@UEAAXAEAVFOutBunch@@@Z 0000000180005528     UE4Editor-Engine:UE4Editor-Engine.dll
 0002:00000530       __imp_?OnStartCrouch@ACharacter@@UEAAXMM@Z 0000000180005530     UE4Editor-Engine:UE4Editor-Engine.dll
 0002:00000538       __imp_?OnSubobjectCreatedFromReplication@AActor@@UEAAXPEAVUObject@@@Z 0000000180005538     UE4Editor-Engine:UE4Editor-Engine.dll
 0002:00000540       __imp_?OnSubobjectDestroyFromReplication@AActor@@UEAAXPEAVUObject@@@Z 0000000180005540     UE4Editor-Engine:UE4Editor-Engine.dll
 0002:00000548       __imp_?OnUpdateSimulatedPosition@ACharacter@@UEAAXAEBUFVector@@AEBUFQuat@@@Z 0000000180005548     UE4Editor-Engine:UE4Editor-Engine.dll
 0002:00000550       __imp_?OnWalkingOffLedge_Implementation@ACharacter@@UEAAXAEBUFVector@@00M@Z 0000000180005550     UE4Editor-Engine:UE4Editor-Engine.dll
 0002:00000558       __imp_?OutsideWorldBounds@APawn@@UEAAXXZ 0000000180005558     UE4Editor-Engine:UE4Editor-Engine.dll
 0002:00000560       __imp_?PawnClientRestart@ACharacter@@UEAAXXZ 0000000180005560     UE4Editor-Engine:UE4Editor-Engine.dll
 0002:00000568       __imp_?PawnStartFire@APawn@@UEAAXE@Z 0000000180005568     UE4Editor-Engine:UE4Editor-Engine.dll
 0002:00000570       __imp_?PlayAnimMontage@ACharacter@@UEAAMPEAVUAnimMontage@@MVFName@@@Z 0000000180005570     UE4Editor-Engine:UE4Editor-Engine.dll
 0002:00000578       __imp_?PossessedBy@ACharacter@@UEAAXPEAVAController@@@Z 0000000180005578     UE4Editor-Engine:UE4Editor-Engine.dll
 0002:00000580       __imp_?PostActorCreated@AActor@@UEAAXXZ 0000000180005580     UE4Editor-Engine:UE4Editor-Engine.dll
 0002:00000588       __imp_?GetWorld@AActor@@UEBAPEAVUWorld@@XZ 0000000180005588     UE4Editor-Engine:UE4Editor-Engine.dll
 0002:00000590       __imp_?PostEditImport@AActor@@UEAAXXZ 0000000180005590     UE4Editor-Engine:UE4Editor-Engine.dll
 0002:00000598       __imp_?PostEditMove@AActor@@UEAAX_N@Z 0000000180005598     UE4Editor-Engine:UE4Editor-Engine.dll
 0002:000005a0       __imp_?PostEditUndo@AActor@@UEAAXV?$TSharedPtr@VITransactionObjectAnnotation@@$0A@@@@Z 00000001800055a0     UE4Editor-Engine:UE4Editor-Engine.dll
 0002:000005a8       __imp_?PostEditUndo@AActor@@UEAAXXZ 00000001800055a8     UE4Editor-Engine:UE4Editor-Engine.dll
 0002:000005b0       __imp_?PostInitProperties@AActor@@UEAAXXZ 00000001800055b0     UE4Editor-Engine:UE4Editor-Engine.dll
 0002:000005b8       __imp_?PostInitializeComponents@ACharacter@@UEAAXXZ 00000001800055b8     UE4Editor-Engine:UE4Editor-Engine.dll
 0002:000005c0       __imp_?PostLoad@APawn@@UEAAXXZ 00000001800055c0     UE4Editor-Engine:UE4Editor-Engine.dll
 0002:000005c8       __imp_?PostLoadSubobjects@AActor@@UEAAXPEAUFObjectInstancingGraph@@@Z 00000001800055c8     UE4Editor-Engine:UE4Editor-Engine.dll
 0002:000005d0       __imp_?PostNetInit@AActor@@UEAAXXZ 00000001800055d0     UE4Editor-Engine:UE4Editor-Engine.dll
 0002:000005d8       __imp_?PostNetReceive@ACharacter@@UEAAXXZ 00000001800055d8     UE4Editor-Engine:UE4Editor-Engine.dll
 0002:000005e0       __imp_?PostNetReceiveLocationAndRotation@ACharacter@@UEAAXXZ 00000001800055e0     UE4Editor-Engine:UE4Editor-Engine.dll
 0002:000005e8       __imp_?PostNetReceivePhysicState@AActor@@UEAAXXZ 00000001800055e8     UE4Editor-Engine:UE4Editor-Engine.dll
 0002:000005f0       __imp_?PostNetReceiveRole@AActor@@UEAAXXZ 00000001800055f0     UE4Editor-Engine:UE4Editor-Engine.dll
 0002:000005f8       __imp_?PostNetReceiveVelocity@APawn@@UEAAXAEBUFVector@@@Z 00000001800055f8     UE4Editor-Engine:UE4Editor-Engine.dll
 0002:00000600       __imp_?PostRegisterAllComponents@APawn@@UEAAXXZ 0000000180005600     UE4Editor-Engine:UE4Editor-Engine.dll
 0002:00000608       __imp_?PostRename@AActor@@UEAAXPEAVUObject@@VFName@@@Z 0000000180005608     UE4Editor-Engine:UE4Editor-Engine.dll
 0002:00000610       __imp_?PostRenderFor@AActor@@UEAAXPEAVAPlayerController@@PEAVUCanvas@@UFVector@@2@Z 0000000180005610     UE4Editor-Engine:UE4Editor-Engine.dll
 0002:00000618       __imp_?PostUnregisterAllComponents@AActor@@UEAAXXZ 0000000180005618     UE4Editor-Engine:UE4Editor-Engine.dll
 0002:00000620       __imp_?PreEditChange@AActor@@UEAAXPEAVUProperty@@@Z 0000000180005620     UE4Editor-Engine:UE4Editor-Engine.dll
 0002:00000628       __imp_?PreEditUndo@AActor@@UEAAXXZ 0000000180005628     UE4Editor-Engine:UE4Editor-Engine.dll
 0002:00000630       __imp_?PreInitializeComponents@APawn@@UEAAXXZ 0000000180005630     UE4Editor-Engine:UE4Editor-Engine.dll
 0002:00000638       __imp_?PreNetReceive@ACharacter@@UEAAXXZ 0000000180005638     UE4Editor-Engine:UE4Editor-Engine.dll
 0002:00000640       __imp_?PreRegisterAllComponents@AActor@@UEAAXXZ 0000000180005640     UE4Editor-Engine:UE4Editor-Engine.dll
 0002:00000648       __imp_?PreReplication@ACharacter@@UEAAXAEAVIRepChangedPropertyTracker@@@Z 0000000180005648     UE4Editor-Engine:UE4Editor-Engine.dll
 0002:00000650       __imp_?PreReplicationForReplay@ACharacter@@UEAAXAEAVIRepChangedPropertyTracker@@@Z 0000000180005650     UE4Editor-Engine:UE4Editor-Engine.dll
 0002:00000658       __imp_?PrestreamTextures@AActor@@UEAAXM_NH@Z 0000000180005658     UE4Editor-Engine:UE4Editor-Engine.dll
 0002:00000660       __imp_?ProcessEvent@AActor@@UEAAXPEAVUFunction@@PEAX@Z 0000000180005660     UE4Editor-Engine:UE4Editor-Engine.dll
 0002:00000668       __imp_?ReachedDesiredRotation@APawn@@UEAA_NXZ 0000000180005668     UE4Editor-Engine:UE4Editor-Engine.dll
 0002:00000670       __imp_?RecalculateBaseEyeHeight@ACharacter@@UEAAXXZ 0000000180005670     UE4Editor-Engine:UE4Editor-Engine.dll
 0002:00000678       __imp_?RegisterActorTickFunctions@AActor@@MEAAX_N@Z 0000000180005678     UE4Editor-Engine:UE4Editor-Engine.dll
 0002:00000680       __imp_?RegisterAllComponents@AActor@@UEAAXXZ 0000000180005680     UE4Editor-Engine:UE4Editor-Engine.dll
 0002:00000688       __imp_?RemoveTickPrerequisiteActor@AActor@@UEAAXPEAV1@@Z 0000000180005688     UE4Editor-Engine:UE4Editor-Engine.dll
 0002:00000690       __imp_?RemoveTickPrerequisiteComponent@AActor@@UEAAXPEAVUActorComponent@@@Z 0000000180005690     UE4Editor-Engine:UE4Editor-Engine.dll
 0002:00000698       __imp_?Rename@AActor@@UEAA_NPEB_WPEAVUObject@@I@Z 0000000180005698     UE4Editor-Engine:UE4Editor-Engine.dll
 0002:000006a0       __imp_?ReplicateSubobjects@AActor@@UEAA_NPEAVUActorChannel@@PEAVFOutBunch@@PEAUFReplicationFlags@@@Z 00000001800056a0     UE4Editor-Engine:UE4Editor-Engine.dll
 0002:000006a8       __imp_?ReregisterAllComponents@AActor@@UEAAXXZ 00000001800056a8     UE4Editor-Engine:UE4Editor-Engine.dll
 0002:000006b0       __imp_?RerunConstructionScripts@AActor@@UEAAXXZ 00000001800056b0     UE4Editor-Engine:UE4Editor-Engine.dll
 0002:000006b8       __imp_?Reset@APawn@@UEAAXXZ 00000001800056b8     UE4Editor-Engine:UE4Editor-Engine.dll
 0002:000006c0       __imp_?ResetJumpState@ACharacter@@UEAAXXZ 00000001800056c0     UE4Editor-Engine:UE4Editor-Engine.dll
 0002:000006c8       __imp_?Restart@ACharacter@@UEAAXXZ 00000001800056c8     UE4Editor-Engine:UE4Editor-Engine.dll
 0002:000006d0       __imp_?RewindForReplay@AActor@@UEAAXXZ 00000001800056d0     UE4Editor-Engine:UE4Editor-Engine.dll
 0002:000006d8       __imp_?RootMotionDebugClientPrintOnScreen_Implementation@ACharacter@@UEAAXAEBVFString@@@Z 00000001800056d8     UE4Editor-Engine:UE4Editor-Engine.dll
 0002:000006e0       __imp_?Serialize@AActor@@UEAAXAEAVFArchive@@@Z 00000001800056e0     UE4Editor-Engine:UE4Editor-Engine.dll
 0002:000006e8       __imp_?Serialize@AActor@@UEAAXVFRecord@FStructuredArchive@@@Z 00000001800056e8     UE4Editor-Engine:UE4Editor-Engine.dll
 0002:000006f0       __imp_?SetActorHiddenInGame@AActor@@UEAAX_N@Z 00000001800056f0     UE4Editor-Engine:UE4Editor-Engine.dll
 0002:000006f8       __imp_?SetBase@ACharacter@@UEAAXPEAVUPrimitiveComponent@@VFName@@_N@Z 00000001800056f8     UE4Editor-Engine:UE4Editor-Engine.dll
 0002:00000700       __imp_?SetIsTemporarilyHiddenInEditor@AActor@@UEAAX_N@Z 0000000180005700     UE4Editor-Engine:UE4Editor-Engine.dll
 0002:00000708       __imp_?SetLifeSpan@AActor@@UEAAXM@Z 0000000180005708     UE4Editor-Engine:UE4Editor-Engine.dll
 0002:00000710       __imp_?SetOwner@AActor@@UEAAXPEAV1@@Z 0000000180005710     UE4Editor-Engine:UE4Editor-Engine.dll
 0002:00000718       __imp_?SetPlayerDefaults@APawn@@UEAAXXZ 0000000180005718     UE4Editor-Engine:UE4Editor-Engine.dll
 0002:00000720       __imp_?SetReplicateMovement@ACharacter@@UEAAX_N@Z 0000000180005720     UE4Editor-Engine:UE4Editor-Engine.dll
 0002:00000728       __imp_?ShouldExport@AActor@@UEAA_NXZ 0000000180005728     UE4Editor-Engine:UE4Editor-Engine.dll
 0002:00000730       __imp_?ShouldImport@AActor@@UEAA_NPEAVFString@@_N@Z 0000000180005730     UE4Editor-Engine:UE4Editor-Engine.dll
 0002:00000738       __imp_?ShouldNotifyLanded@ACharacter@@UEAA_NAEBUFHitResult@@@Z 0000000180005738     UE4Editor-Engine:UE4Editor-Engine.dll
 0002:00000740       __imp_?ShouldTakeDamage@APawn@@UEBA_NMAEBUFDamageEvent@@PEAVAController@@PEAVAActor@@@Z 0000000180005740     UE4Editor-Engine:UE4Editor-Engine.dll
 0002:00000748       __imp_?ShouldTickIfViewportsOnly@APawn@@UEBA_NXZ 0000000180005748     UE4Editor-Engine:UE4Editor-Engine.dll
 0002:00000750       __imp_?SpawnDefaultController@APawn@@UEAAXXZ 0000000180005750     UE4Editor-Engine:UE4Editor-Engine.dll
 0002:00000758       __imp_?StopAnimMontage@ACharacter@@UEAAXPEAVUAnimMontage@@@Z 0000000180005758     UE4Editor-Engine:UE4Editor-Engine.dll
 0002:00000760       __imp_?StopJumping@ACharacter@@UEAAXXZ 0000000180005760     UE4Editor-Engine:UE4Editor-Engine.dll
 0002:00000768       __imp_?TakeDamage@APawn@@UEAAMMAEBUFDamageEvent@@PEAVAController@@PEAVAActor@@@Z 0000000180005768     UE4Editor-Engine:UE4Editor-Engine.dll
 0002:00000770       __imp_?TearOff@AActor@@UEAAXXZ 0000000180005770     UE4Editor-Engine:UE4Editor-Engine.dll
 0002:00000778       __imp_?TeleportSucceeded@APawn@@UEAAX_N@Z 0000000180005778     UE4Editor-Engine:UE4Editor-Engine.dll
 0002:00000780       __imp_?TeleportTo@AActor@@UEAA_NAEBUFVector@@AEBUFRotator@@_N2@Z 0000000180005780     UE4Editor-Engine:UE4Editor-Engine.dll
 0002:00000788       __imp_?TickActor@AActor@@UEAAXMW4ELevelTick@@AEAUFActorTickFunction@@@Z 0000000180005788     UE4Editor-Engine:UE4Editor-Engine.dll
 0002:00000790       __imp_?TornOff@ACharacter@@UEAAXXZ 0000000180005790     UE4Editor-Engine:UE4Editor-Engine.dll
 0002:00000798       __imp_?TurnOff@ACharacter@@UEAAXXZ 0000000180005798     UE4Editor-Engine:UE4Editor-Engine.dll
 0002:000007a0       __imp_?UnCrouch@ACharacter@@UEAAX_N@Z 00000001800057a0     UE4Editor-Engine:UE4Editor-Engine.dll
 0002:000007a8       __imp_?UnPossessed@ACharacter@@UEAAXXZ 00000001800057a8     UE4Editor-Engine:UE4Editor-Engine.dll
 0002:000007b0       __imp_?UnregisterAllComponents@AActor@@UEAAX_N@Z 00000001800057b0     UE4Editor-Engine:UE4Editor-Engine.dll
 0002:000007b8       __imp_?UpdateNavigationRelevance@ACharacter@@UEAAXXZ 00000001800057b8     UE4Editor-Engine:UE4Editor-Engine.dll
 0002:000007c0       __imp_?UseShortConnectTimeout@AActor@@UEBA_NXZ 00000001800057c0     UE4Editor-Engine:UE4Editor-Engine.dll
 0002:000007c8       __imp_?_getUObject@APawn@@UEBAPEAVUObject@@XZ 00000001800057c8     UE4Editor-Engine:UE4Editor-Engine.dll
 0002:000007d0       __imp_?AddReferencedObjects@AActor@@SAXPEAVUObject@@AEAVFReferenceCollector@@@Z 00000001800057d0     UE4Editor-Engine:UE4Editor-Engine.dll
 0002:000007d8       __imp_?StaticConfigName@APawn@@SAPEB_WXZ 00000001800057d8     UE4Editor-Engine:UE4Editor-Engine.dll
 0002:000007e0       __imp_?StaticClass@ACharacter@@SAPEAVUClass@@XZ 00000001800057e0     UE4Editor-Engine:UE4Editor-Engine.dll
 0002:000007e8       __imp_??0ACharacter@@QEAA@AEAVFVTableHelper@@@Z 00000001800057e8     UE4Editor-Engine:UE4Editor-Engine.dll
 0002:000007f0       __imp_?Z_Construct_UClass_ACharacter@@YAPEAVUClass@@XZ 00000001800057f0     UE4Editor-Engine:UE4Editor-Engine.dll
 0002:000007f8       __imp_?BecomeViewTarget@APawn@@UEAAXPEAVAPlayerController@@@Z 00000001800057f8     UE4Editor-Engine:UE4Editor-Engine.dll
 0002:00000800       __imp_?GetViewRotation@APawn@@UEBA?AUFRotator@@XZ 0000000180005800     UE4Editor-Engine:UE4Editor-Engine.dll
 0002:00000808       __imp_?GetVelocity@APawn@@UEBA?AUFVector@@XZ 0000000180005808     UE4Editor-Engine:UE4Editor-Engine.dll
 0002:00000810       __imp_?GetTargetLocation@AActor@@UEBA?AUFVector@@PEAV1@@Z 0000000180005810     UE4Editor-Engine:UE4Editor-Engine.dll
 0002:00000818       __imp_?GetSubobjectsWithStableNamesForNetworking@AActor@@UEAAXAEAV?$TArray@PEAVUObject@@VFDefaultAllocator@@@@@Z 0000000180005818     UE4Editor-Engine:UE4Editor-Engine.dll
 0002:00000820       __imp_?GetSimpleCollisionCylinder@ACharacter@@UEBAXAEAM0@Z 0000000180005820     UE4Editor-Engine:UE4Editor-Engine.dll
 0002:00000828       __imp_?GetReplayPriority@AActor@@UEAAMAEBUFVector@@0PEAV1@1QEAVUActorChannel@@M@Z 0000000180005828     UE4Editor-Engine:UE4Editor-Engine.dll
 0002:00000830       __imp_?GetReferencedContentObjects@AActor@@UEBA_NAEAV?$TArray@PEAVUObject@@VFDefaultAllocator@@@@@Z 0000000180005830     UE4Editor-Engine:UE4Editor-Engine.dll
 0002:00000838       __imp_?GetPawnViewLocation@APawn@@UEBA?AUFVector@@XZ 0000000180005838     UE4Editor-Engine:UE4Editor-Engine.dll
 0002:00000840       __imp_?GetPawnPhysicsVolume@APawn@@UEBAPEAVAPhysicsVolume@@XZ 0000000180005840     UE4Editor-Engine:UE4Editor-Engine.dll
 0002:00000848       __imp_?GetPawnNoiseEmitterComponent@APawn@@UEBAPEAVUPawnNoiseEmitterComponent@@XZ 0000000180005848     UE4Editor-Engine:UE4Editor-Engine.dll
 0002:00000850       __imp_?GetNetPriority@AActor@@UEAAMAEBUFVector@@0PEAV1@1PEAVUActorChannel@@M_N@Z 0000000180005850     UE4Editor-Engine:UE4Editor-Engine.dll
 0002:00000858       __imp_?GetNetOwningPlayer@APawn@@UEAAPEAVUPlayer@@XZ 0000000180005858     UE4Editor-Engine:UE4Editor-Engine.dll
 0002:00000860       __imp_?GetNetOwner@APawn@@UEBAPEBVAActor@@XZ 0000000180005860     UE4Editor-Engine:UE4Editor-Engine.dll
 0002:00000868       __imp_?GetNetDormancy@AActor@@UEAA_NAEBUFVector@@0PEAV1@1PEAVUActorChannel@@M_N@Z 0000000180005868     UE4Editor-Engine:UE4Editor-Engine.dll
 0002:00000870       __imp_?GetNetConnection@APawn@@UEBAPEAVUNetConnection@@XZ 0000000180005870     UE4Editor-Engine:UE4Editor-Engine.dll
 0002:00000878       __imp_?GetNavAgentPropertiesRef@APawn@@UEBAAEBUFNavAgentProperties@@XZ 0000000180005878     UE4Editor-Engine:UE4Editor-Engine.dll
 0002:00000880       __imp_?GetNavAgentLocation@ACharacter@@UEBA?AUFVector@@XZ 0000000180005880     UE4Editor-Engine:UE4Editor-Engine.dll
 0002:00000888       __imp_?GetMovementComponent@ACharacter@@UEBAPEAVUPawnMovementComponent@@XZ 0000000180005888     UE4Editor-Engine:UE4Editor-Engine.dll
 0002:00000890       __imp_?GetMovementBase@ACharacter@@UEBAPEAVUPrimitiveComponent@@XZ 0000000180005890     UE4Editor-Engine:UE4Editor-Engine.dll
 0002:00000898       __imp_?GetMoveGoalReachTest@APawn@@UEBAXPEBVAActor@@AEBUFVector@@AEAU3@AEAM3@Z 0000000180005898     UE4Editor-Engine:UE4Editor-Engine.dll
 0002:000008a0       __imp_?GetLifetimeReplicatedProps@ACharacter@@UEBAXAEAV?$TArray@VFLifetimeProperty@@VFDefaultAllocator@@@@@Z 00000001800058a0     UE4Editor-Engine:UE4Editor-Engine.dll
 0002:000008a8       __imp_?GetLifeSpan@AActor@@UEBAMXZ 00000001800058a8     UE4Editor-Engine:UE4Editor-Engine.dll
 0002:000008b0       __imp_?GetLastRenderTime@AActor@@UEBAMXZ 00000001800058b0     UE4Editor-Engine:UE4Editor-Engine.dll
 0002:000008b8       __imp_?GetJumpMaxHoldTime@ACharacter@@UEBAMXZ 00000001800058b8     UE4Editor-Engine:UE4Editor-Engine.dll
 0002:000008c0       __imp_?GetHumanReadableName@APawn@@UEBA?AVFString@@XZ 00000001800058c0     UE4Editor-Engine:UE4Editor-Engine.dll
 0002:000008c8       __imp_?GetFunctionCallspace@AActor@@UEAAHPEAVUFunction@@PEAXPEAUFFrame@@@Z 00000001800058c8     UE4Editor-Engine:UE4Editor-Engine.dll
 0002:000008d0       __imp_?GetDefaultHalfHeight@ACharacter@@UEBAMXZ 00000001800058d0     UE4Editor-Engine:UE4Editor-Engine.dll
 0002:000008d8       __imp_?GetDefaultAttachComponent@AActor@@UEBAPEAVUSceneComponent@@XZ 00000001800058d8     UE4Editor-Engine:UE4Editor-Engine.dll
 0002:000008e0       __imp_?GetDamageInstigator@APawn@@MEBAPEAVAController@@PEAV2@AEBVUDamageType@@@Z 00000001800058e0     UE4Editor-Engine:UE4Editor-Engine.dll
 0002:000008e8       __imp_?GetCustomIconName@AActor@@UEBA?AVFName@@XZ 00000001800058e8     UE4Editor-Engine:UE4Editor-Engine.dll
 0002:000008f0       __imp_?GetComponentsCollisionResponseToChannel@AActor@@UEBA?AW4ECollisionResponse@@W4ECollisionChannel@@@Z 00000001800058f0     UE4Editor-Engine:UE4Editor-Engine.dll
 0002:000008f8       __imp_?GetComponentsBoundingCylinder@AActor@@UEBAXAEAM0_N@Z 00000001800058f8     UE4Editor-Engine:UE4Editor-Engine.dll
 0002:00000900       __imp_?GetComponentsBoundingBox@AActor@@UEBA?AUFBox@@_N@Z 0000000180005900     UE4Editor-Engine:UE4Editor-Engine.dll
 0002:00000908       __imp_?GetBaseRotationOffset@ACharacter@@UEBA?AUFQuat@@XZ 0000000180005908     UE4Editor-Engine:UE4Editor-Engine.dll
 0002:00000910       __imp_?GetBaseAimRotation@APawn@@UEBA?AUFRotator@@XZ 0000000180005910     UE4Editor-Engine:UE4Editor-Engine.dll
 0002:00000918       __imp_?GetActorEyesViewPoint@APawn@@UEBAXAEAUFVector@@AEAUFRotator@@@Z 0000000180005918     UE4Editor-Engine:UE4Editor-Engine.dll
 0002:00000920       __imp_?GatherCurrentMovement@AActor@@UEAAXXZ 0000000180005920     UE4Editor-Engine:UE4Editor-Engine.dll
 0002:00000928       __imp_?ForceNetUpdate@AActor@@UEAAXXZ 0000000180005928     UE4Editor-Engine:UE4Editor-Engine.dll
 0002:00000930       __imp_?ForceNetRelevant@AActor@@UEAAXXZ 0000000180005930     UE4Editor-Engine:UE4Editor-Engine.dll
 0002:00000938       __imp_?FindComponentByClass@ACharacter@@UEBAPEAVUActorComponent@@V?$TSubclassOf@VUActorComponent@@@@@Z 0000000180005938     UE4Editor-Engine:UE4Editor-Engine.dll
 0002:00000940       __imp_?FellOutOfWorld@AActor@@UEAAXAEBVUDamageType@@@Z 0000000180005940     UE4Editor-Engine:UE4Editor-Engine.dll
 0002:00000948       __imp_?Falling@ACharacter@@UEAAXXZ 0000000180005948     UE4Editor-Engine:UE4Editor-Engine.dll
 0002:00000950       __imp_?FactoryTransactionAnnotation@AActor@@UEBA?AV?$TSharedPtr@VITransactionObjectAnnotation@@$0A@@@W4ETransactionAnnotationCreationMode@UObject@@@Z 0000000180005950     UE4Editor-Engine:UE4Editor-Engine.dll
 0002:00000958       __imp_?FaceRotation@APawn@@UEAAXUFRotator@@M@Z 0000000180005958     UE4Editor-Engine:UE4Editor-Engine.dll
 0002:00000960       __imp_?EndViewTarget@AActor@@UEAAXPEAVAPlayerController@@@Z 0000000180005960     UE4Editor-Engine:UE4Editor-Engine.dll
 0002:00000968       __imp_?EndPlay@APawn@@UEAAXW4Type@EEndPlayReason@@@Z 0000000180005968     UE4Editor-Engine:UE4Editor-Engine.dll
 0002:00000970       __imp_?EnableInput@APawn@@UEAAXPEAVAPlayerController@@@Z 0000000180005970     UE4Editor-Engine:UE4Editor-Engine.dll
 0002:00000978       __imp_?EditorReplacedActor@AActor@@UEAAXPEAV1@@Z 0000000180005978     UE4Editor-Engine:UE4Editor-Engine.dll
 0002:00000980       __imp_?EditorKeyPressed@AActor@@UEAAXUFKey@@W4EInputEvent@@@Z 0000000180005980     UE4Editor-Engine:UE4Editor-Engine.dll
 0002:00000988       __imp_?EditorCanAttachTo@AActor@@UEBA_NPEBV1@AEAVFText@@@Z 0000000180005988     UE4Editor-Engine:UE4Editor-Engine.dll
 0002:00000990       __imp_?EditorApplyTranslation@AActor@@UEAAXAEBUFVector@@_N11@Z 0000000180005990     UE4Editor-Engine:UE4Editor-Engine.dll
 0002:00000998       __imp_?EditorApplyScale@AActor@@UEAAXAEBUFVector@@PEBU2@_N22@Z 0000000180005998     UE4Editor-Engine:UE4Editor-Engine.dll
 0002:000009a0       __imp_?EditorApplyRotation@APawn@@UEAAXAEBUFRotator@@_N11@Z 00000001800059a0     UE4Editor-Engine:UE4Editor-Engine.dll
 0002:000009a8       __imp_?EditorApplyMirror@AActor@@UEAAXAEBUFVector@@0@Z 00000001800059a8     UE4Editor-Engine:UE4Editor-Engine.dll
 0002:000009b0       __imp_?DisplayDebug@ACharacter@@UEAAXPEAVUCanvas@@AEBVFDebugDisplayInfo@@AEAM2@Z 00000001800059b0     UE4Editor-Engine:UE4Editor-Engine.dll
 0002:000009b8       __imp_?DispatchPhysicsCollisionHit@AActor@@UEAAXAEBUFRigidBodyCollisionInfo@@0AEBUFCollisionImpactData@@@Z 00000001800059b8     UE4Editor-Engine:UE4Editor-Engine.dll
 0002:000009c0       __imp_?DisableInput@APawn@@UEAAXPEAVAPlayerController@@@Z 00000001800059c0     UE4Editor-Engine:UE4Editor-Engine.dll
 0002:000009c8       __imp_?DetachFromControllerPendingDestroy@APawn@@UEAAXXZ 00000001800059c8     UE4Editor-Engine:UE4Editor-Engine.dll
 0002:000009d0       __imp_?Destroyed@APawn@@UEAAXXZ 00000001800059d0     UE4Editor-Engine:UE4Editor-Engine.dll
 0002:000009d8       __imp_?DestroyPlayerInputComponent@APawn@@MEAAXXZ 00000001800059d8     UE4Editor-Engine:UE4Editor-Engine.dll
 0002:000009e0       __imp_?DestroyNetworkActorHandled@AActor@@UEAA_NXZ 00000001800059e0     UE4Editor-Engine:UE4Editor-Engine.dll
 0002:000009e8       __imp_?Crouch@ACharacter@@UEAAX_N@Z 00000001800059e8     UE4Editor-Engine:UE4Editor-Engine.dll
 0002:000009f0       __imp_?CreatePlayerInputComponent@APawn@@MEAAPEAVUInputComponent@@XZ 00000001800059f0     UE4Editor-Engine:UE4Editor-Engine.dll
 0002:000009f8       __imp_?ConsumeMovementInputVector@APawn@@UEAA?AUFVector@@XZ 00000001800059f8     UE4Editor-Engine:UE4Editor-Engine.dll
 0002:00000a00       __imp_?ClientCheatWalk_Implementation@ACharacter@@UEAAXXZ 0000000180005a00     UE4Editor-Engine:UE4Editor-Engine.dll
 0002:00000a08       __imp_?ClientCheatGhost_Implementation@ACharacter@@UEAAXXZ 0000000180005a08     UE4Editor-Engine:UE4Editor-Engine.dll
 0002:00000a10       __imp_?ClientCheatFly_Implementation@ACharacter@@UEAAXXZ 0000000180005a10     UE4Editor-Engine:UE4Editor-Engine.dll
 0002:00000a18       __imp_?ClearJumpInput@ACharacter@@UEAAXM@Z 0000000180005a18     UE4Editor-Engine:UE4Editor-Engine.dll
 0002:00000a20       __imp_?ClearCrossLevelReferences@ACharacter@@UEAAXXZ 0000000180005a20     UE4Editor-Engine:UE4Editor-Engine.dll
 0002:00000a28       __imp_?CheckStillInWorld@AActor@@UEAA_NXZ 0000000180005a28     UE4Editor-Engine:UE4Editor-Engine.dll
 0002:00000a30       __imp_?CheckJumpInput@ACharacter@@UEAAXM@Z 0000000180005a30     UE4Editor-Engine:UE4Editor-Engine.dll
 0002:00000a38       __imp_?CheckForErrors@AActor@@UEAAXXZ 0000000180005a38     UE4Editor-Engine:UE4Editor-Engine.dll
 0002:00000a40       __imp_?CheckForDeprecated@AActor@@UEAAXXZ 0000000180005a40     UE4Editor-Engine:UE4Editor-Engine.dll
 0002:00000a48       __imp_?CheckDefaultSubobjectsInternal@AActor@@UEBA_NXZ 0000000180005a48     UE4Editor-Engine:UE4Editor-Engine.dll
 0002:00000a50       __imp_?CanJumpInternal_Implementation@ACharacter@@MEBA_NXZ 0000000180005a50     UE4Editor-Engine:UE4Editor-Engine.dll
 0002:00000a58       __imp_?CanDeleteSelectedActor@AActor@@UEBA_NAEAVFText@@@Z 0000000180005a58     UE4Editor-Engine:UE4Editor-Engine.dll
 0002:00000a60       __imp_?CanCrouch@ACharacter@@UEAA_NXZ 0000000180005a60     UE4Editor-Engine:UE4Editor-Engine.dll
 0002:00000a68       __imp_?CanBeInCluster@AActor@@UEBA_NXZ 0000000180005a68     UE4Editor-Engine:UE4Editor-Engine.dll
 0002:00000a70       __imp_?CanBeBaseForCharacter@APawn@@UEBA_NPEAV1@@Z 0000000180005a70     UE4Editor-Engine:UE4Editor-Engine.dll
 0002:00000a78       __imp_?CallRemoteFunction@AActor@@UEAA_NPEAVUFunction@@PEAXPEAUFOutParmRec@@PEAUFFrame@@@Z 0000000180005a78     UE4Editor-Engine:UE4Editor-Engine.dll
 0002:00000a80       __imp_?CalculateComponentsBoundingBoxInLocalSpace@AActor@@UEBA?AUFBox@@_N@Z 0000000180005a80     UE4Editor-Engine:UE4Editor-Engine.dll
 0002:00000a88       __imp_?CalcCamera@AActor@@UEAAXMAEAUFMinimalViewInfo@@@Z 0000000180005a88     UE4Editor-Engine:UE4Editor-Engine.dll
 0002:00000a90       __imp_?BeginDestroy@AActor@@UEAAXXZ 0000000180005a90     UE4Editor-Engine:UE4Editor-Engine.dll
 0002:00000a98       __imp_?CacheInitialMeshOffset@ACharacter@@UEAAXUFVector@@UFRotator@@@Z 0000000180005a98     UE4Editor-Engine:UE4Editor-Engine.dll
 0002:00000aa0       __imp_?BaseChange@ACharacter@@MEAAXXZ 0000000180005aa0     UE4Editor-Engine:UE4Editor-Engine.dll
 0002:00000aa8       __imp_?ApplyWorldOffset@AActor@@UEAAXAEBUFVector@@_N@Z 0000000180005aa8     UE4Editor-Engine:UE4Editor-Engine.dll
 0002:00000ab0       __imp_?ApplyDamageMomentum@ACharacter@@UEAAXMAEBUFDamageEvent@@PEAVAPawn@@PEAVAActor@@@Z 0000000180005ab0     UE4Editor-Engine:UE4Editor-Engine.dll
 0002:00000ab8       __imp_?AddTickPrerequisiteComponent@AActor@@UEAAXPEAVUActorComponent@@@Z 0000000180005ab8     UE4Editor-Engine:UE4Editor-Engine.dll
 0002:00000ac0       __imp_?AddTickPrerequisiteActor@AActor@@UEAAXPEAV1@@Z 0000000180005ac0     UE4Editor-Engine:UE4Editor-Engine.dll
 0002:00000ac8       __imp_?AddMovementInput@APawn@@UEAAXUFVector@@M_N@Z 0000000180005ac8     UE4Editor-Engine:UE4Editor-Engine.dll
 0002:00000ad0       __imp_?AddControllerYawInput@APawn@@UEAAXM@Z 0000000180005ad0     UE4Editor-Engine:UE4Editor-Engine.dll
 0002:00000ad8       __imp_?AddControllerRollInput@APawn@@UEAAXM@Z 0000000180005ad8     UE4Editor-Engine:UE4Editor-Engine.dll
 0002:00000ae0       __imp_?AddControllerPitchInput@APawn@@UEAAXM@Z 0000000180005ae0     UE4Editor-Engine:UE4Editor-Engine.dll
 0002:00000ae8       __imp_??1ACharacter@@UEAA@XZ 0000000180005ae8     UE4Editor-Engine:UE4Editor-Engine.dll
 0002:00000af0       __imp_?SetupPlayerInputComponent@ACharacter@@UEAAXPEAVUInputComponent@@@Z 0000000180005af0     UE4Editor-Engine:UE4Editor-Engine.dll
 0002:00000af8       __imp_?BeginPlay@ACharacter@@UEAAXXZ 0000000180005af8     UE4Editor-Engine:UE4Editor-Engine.dll
 0002:00000b00       __imp_??0ACharacter@@QEAA@AEBVFObjectInitializer@@@Z 0000000180005b00     UE4Editor-Engine:UE4Editor-Engine.dll
 0002:00000b08       __imp_?PostEditChangeProperty@APawn@@UEAAXAEAUFPropertyChangedEvent@@@Z 0000000180005b08     UE4Editor-Engine:UE4Editor-Engine.dll
 0002:00000b10       __imp_?Tick@AActor@@UEAAXM@Z 0000000180005b10     UE4Editor-Engine:UE4Editor-Engine.dll
 0002:00000b18       \177UE4Editor-Engine_NULL_THUNK_DATA 0000000180005b18     UE4Editor-Engine:UE4Editor-Engine.dll
 0002:00000b20       __imp_memmove              0000000180005b20     vcruntime:VCRUNTIME140.dll
 0002:00000b28       __imp_memset               0000000180005b28     vcruntime:VCRUNTIME140.dll
 0002:00000b30       __imp___C_specific_handler 0000000180005b30     vcruntime:VCRUNTIME140.dll
 0002:00000b38       __imp__purecall            0000000180005b38     vcruntime:VCRUNTIME140.dll
 0002:00000b40       __imp___CxxFrameHandler3   0000000180005b40     vcruntime:VCRUNTIME140.dll
 0002:00000b48       __imp___std_type_info_destroy_list 0000000180005b48     vcruntime:VCRUNTIME140.dll
 0002:00000b50       __imp___std_terminate      0000000180005b50     vcruntime:VCRUNTIME140.dll
 0002:00000b58       \177VCRUNTIME140_NULL_THUNK_DATA 0000000180005b58     vcruntime:VCRUNTIME140.dll
 0002:00000b60       __imp__initterm            0000000180005b60     ucrt:api-ms-win-crt-runtime-l1-1-0.dll
 0002:00000b68       __imp_terminate            0000000180005b68     ucrt:api-ms-win-crt-runtime-l1-1-0.dll
 0002:00000b70       __imp__configure_narrow_argv 0000000180005b70     ucrt:api-ms-win-crt-runtime-l1-1-0.dll
 0002:00000b78       __imp__seh_filter_dll      0000000180005b78     ucrt:api-ms-win-crt-runtime-l1-1-0.dll
 0002:00000b80       __imp__initialize_narrow_environment 0000000180005b80     ucrt:api-ms-win-crt-runtime-l1-1-0.dll
 0002:00000b88       __imp__cexit               0000000180005b88     ucrt:api-ms-win-crt-runtime-l1-1-0.dll
 0002:00000b90       __imp__crt_at_quick_exit   0000000180005b90     ucrt:api-ms-win-crt-runtime-l1-1-0.dll
 0002:00000b98       __imp__crt_atexit          0000000180005b98     ucrt:api-ms-win-crt-runtime-l1-1-0.dll
 0002:00000ba0       __imp__execute_onexit_table 0000000180005ba0     ucrt:api-ms-win-crt-runtime-l1-1-0.dll
 0002:00000ba8       __imp__register_onexit_function 0000000180005ba8     ucrt:api-ms-win-crt-runtime-l1-1-0.dll
 0002:00000bb0       __imp__initterm_e          0000000180005bb0     ucrt:api-ms-win-crt-runtime-l1-1-0.dll
 0002:00000bb8       __imp__initialize_onexit_table 0000000180005bb8     ucrt:api-ms-win-crt-runtime-l1-1-0.dll
 0002:00000bc0       \177api-ms-win-crt-runtime-l1-1-0_NULL_THUNK_DATA 0000000180005bc0     ucrt:api-ms-win-crt-runtime-l1-1-0.dll
 0002:00000bc8       __guard_check_icall_fptr   0000000180005bc8     MSVCRT:guard_support.obj
 0002:00000bd0       __guard_dispatch_icall_fptr 0000000180005bd0     MSVCRT:guard_support.obj
 0002:00000bd8       __xc_a                     0000000180005bd8     MSVCRT:initializers.obj
 0002:00001238       __xc_z                     0000000180006238     MSVCRT:initializers.obj
 0002:00001240       __xi_a                     0000000180006240     MSVCRT:initializers.obj
 0002:00001248       __PLEASE_LINK_WITH_legacy_stdio_wide_specifiers.lib 0000000180006248     legacy_stdio_wide_specifiers:legacy_stdio_wide_specifiers.obj
 0002:00001250       __xi_z                     0000000180006250     MSVCRT:initializers.obj
 0002:00001258       __xp_a                     0000000180006258     MSVCRT:initializers.obj
 0002:00001260       __xp_z                     0000000180006260     MSVCRT:initializers.obj
 0002:00001268       __xt_a                     0000000180006268     MSVCRT:initializers.obj
 0002:00001270       __xt_z                     0000000180006270     MSVCRT:initializers.obj
 0002:00001588       ??_7IModuleInterface@@6B@  0000000180006588     ECSLearning.cpp.obj
 0002:000015c8       ??_7FDefaultModuleImpl@@6B@ 00000001800065c8     ECSLearning.cpp.obj
 0002:00001608       ??_7FDefaultGameModuleImpl@@6B@ 0000000180006608     ECSLearning.cpp.obj
 0002:00001648       __real@32cd365b            0000000180006648     ECSLearning.cpp.obj
 0002:0000164c       __real@348bdd11            000000018000664c     ECSLearning.cpp.obj
 0002:00001650       __real@3638b88e            0000000180006650     ECSLearning.cpp.obj
 0002:00001654       __real@37cfb4c2            0000000180006654     ECSLearning.cpp.obj
 0002:00001658       __real@39500bf1            0000000180006658     ECSLearning.cpp.obj
 0002:0000165c       __real@3ab609aa            000000018000665c     ECSLearning.cpp.obj
 0002:00001660       __real@3c088886            0000000180006660     ECSLearning.cpp.obj
 0002:00001664       __real@3c8efa35            0000000180006664     ECSLearning.cpp.obj
 0002:00001668       __real@3d2aaaa3            0000000180006668     ECSLearning.cpp.obj
 0002:0000166c       __real@3e22f983            000000018000666c     ECSLearning.cpp.obj
 0002:00001670       __real@3e2aaaab            0000000180006670     ECSLearning.cpp.obj
 0002:00001674       __real@3f000000            0000000180006674     ECSLearning.cpp.obj
 0002:00001678       __real@3f800000            0000000180006678     ECSLearning.cpp.obj
 0002:0000167c       __real@3fc90fdb            000000018000667c     ECSLearning.cpp.obj
 0002:00001680       __real@40490fdb            0000000180006680     ECSLearning.cpp.obj
 0002:00001684       __real@40c90fdb            0000000180006684     ECSLearning.cpp.obj
 0002:00001688       __real@42b40000            0000000180006688     ECSLearning.cpp.obj
 0002:0000168c       __real@43340000            000000018000668c     ECSLearning.cpp.obj
 0002:00001690       __real@43870000            0000000180006690     ECSLearning.cpp.obj
 0002:00001694       __real@bf800000            0000000180006694     ECSLearning.cpp.obj
 0002:00001698       __real@bfc90fdb            0000000180006698     ECSLearning.cpp.obj
 0002:0000169c       __real@c0490fdb            000000018000669c     ECSLearning.cpp.obj
 0002:000016a0       __xmm@00000000ffffffffffffffffffffffff 00000001800066a0     ECSLearning.cpp.obj
 0002:000016b0       __xmm@00000001000000010000000100000001 00000001800066b0     ECSLearning.cpp.obj
 0002:000016c0       __xmm@322bcc77322bcc77322bcc77322bcc77 00000001800066c0     ECSLearning.cpp.obj
 0002:000016d0       __xmm@3727c5ac3727c5ac3727c5ac3727c5ac 00000001800066d0     ECSLearning.cpp.obj
 0002:000016e0       __xmm@38d1b71738d1b71738d1b71738d1b717 00000001800066e0     ECSLearning.cpp.obj
 0002:000016f0       __xmm@3c0efa353c0efa353c0efa353c0efa35 00000001800066f0     ECSLearning.cpp.obj
 0002:00001700       __xmm@3c23d70a3c23d70a3c23d70a3c23d70a 0000000180006700     ECSLearning.cpp.obj
 0002:00001710       __xmm@3c8efa353c8efa353c8efa353c8efa35 0000000180006710     ECSLearning.cpp.obj
 0002:00001720       __xmm@3e22f9833e22f9833e22f9833e22f983 0000000180006720     ECSLearning.cpp.obj
 0002:00001730       __xmm@3ea2f9833ea2f9833ea2f9833ea2f983 0000000180006730     ECSLearning.cpp.obj
 0002:00001740       __xmm@3f0000003f0000003f0000003f000000 0000000180006740     ECSLearning.cpp.obj
 0002:00001750       __xmm@3f490fdb3f490fdb3f490fdb3f490fdb 0000000180006750     ECSLearning.cpp.obj
 0002:00001760       __xmm@3f800000000000000000000000000000 0000000180006760     ECSLearning.cpp.obj
 0002:00001770       __xmm@3f8000003f8000003f8000003f800000 0000000180006770     ECSLearning.cpp.obj
 0002:00001780       __xmm@3f8000003f8000003f800000bf800000 0000000180006780     ECSLearning.cpp.obj
 0002:00001790       __xmm@3f800000bf800000bf800000bf800000 0000000180006790     ECSLearning.cpp.obj
 0002:000017a0       __xmm@3fc90fdb3fc90fdb3fc90fdb3fc90fdb 00000001800067a0     ECSLearning.cpp.obj
 0002:000017b0       __xmm@3fffffff3fffffff3fffffff3fffffff 00000001800067b0     ECSLearning.cpp.obj
 0002:000017c0       __xmm@40000000400000004000000040000000 00000001800067c0     ECSLearning.cpp.obj
 0002:000017d0       __xmm@40490fdb40490fdb40490fdb40490fdb 00000001800067d0     ECSLearning.cpp.obj
 0002:000017e0       __xmm@40c90fdb40c90fdb40c90fdb40c90fdb 00000001800067e0     ECSLearning.cpp.obj
 0002:000017f0       __xmm@42652ee042652ee042652ee042652ee0 00000001800067f0     ECSLearning.cpp.obj
 0002:00001800       __xmm@42fe000042fe000042fe000042fe0000 0000000180006800     ECSLearning.cpp.obj
 0002:00001810       __xmm@43340000433400004334000043340000 0000000180006810     ECSLearning.cpp.obj
 0002:00001820       __xmm@437f0000437f0000437f0000437f0000 0000000180006820     ECSLearning.cpp.obj
 0002:00001830       __xmm@43b4000043b4000043b4000043b40000 0000000180006830     ECSLearning.cpp.obj
 0002:00001840       __xmm@7f7fc99e7f7fc99e7f7fc99e7f7fc99e 0000000180006840     ECSLearning.cpp.obj
 0002:00001850       __xmm@7f8000007f8000007f8000007f800000 0000000180006850     ECSLearning.cpp.obj
 0002:00001860       __xmm@7fffffff7fffffff7fffffff7fffffff 0000000180006860     ECSLearning.cpp.obj
 0002:00001870       __xmm@80000000800000008000000080000000 0000000180006870     ECSLearning.cpp.obj
 0002:00001880       __xmm@bf000000bf000000bf000000bf000000 0000000180006880     ECSLearning.cpp.obj
 0002:00001890       __xmm@bf8000003f8000003f8000003f800000 0000000180006890     ECSLearning.cpp.obj
 0002:000018a0       __xmm@bf8000003f8000003f800000bf800000 00000001800068a0     ECSLearning.cpp.obj
 0002:000018b0       __xmm@bf8000003f800000bf8000003f800000 00000001800068b0     ECSLearning.cpp.obj
 0002:000018c0       __xmm@bf800000bf8000003f8000003f800000 00000001800068c0     ECSLearning.cpp.obj
 0002:000018d0       __xmm@bf800000bf800000bf800000bf800000 00000001800068d0     ECSLearning.cpp.obj
 0002:000018e0       __xmm@c2fe0000c2fe0000c2fe0000c2fe0000 00000001800068e0     ECSLearning.cpp.obj
 0002:000018f0       __xmm@ffffffffffffffffffffffffffffffff 00000001800068f0     ECSLearning.cpp.obj
 0002:00003498       ??_7AMyCharacter@@6BAActor@@@ 0000000180008498     MyCharacter.cpp.obj
 0002:00003e10       ??_7AMyCharacter@@6BINavAgentInterface@@@ 0000000180008e10     MyCharacter.cpp.obj
 0002:00003e68       ??_C@_1CI@GHJNFKMB@?$AA?1?$AAS?$AAc?$AAr?$AAi?$AAp?$AAt?$AA?1?$AAE?$AAC?$AAS?$AAL?$AAe?$AAa?$AAr@ 0000000180008e68     MyCharacter.cpp.obj
 0002:000045e3       ?StaticCppClassTypeInfo@Z_Construct_UClass_AMyCharacter_Statics@@2UFCppClassTypeInfoStatic@@B 00000001800095e3     MyCharacter.gen.cpp.obj
 0002:000055e8       ?Class_MetaDataParams@Z_Construct_UClass_AMyCharacter_Statics@@2QBUFMetaDataPairParam@UE4CodeGen_Private@@B 000000018000a5e8     MyCharacter.gen.cpp.obj
 0002:000057f0       ?ClassParams@Z_Construct_UClass_AMyCharacter_Statics@@2UFClassParams@UE4CodeGen_Private@@B 000000018000a7f0     MyCharacter.gen.cpp.obj
 0002:000062e0       ??_C@_0L@EMKHOODP@Index?5?$DO?$DN?50@ 000000018000b2e0     MyCharacter.gen.cpp.obj
 0002:000062ec       ??_C@_11LOCGONAA@@         000000018000b2ec     MyCharacter.gen.cpp.obj
 0002:000062f0       ??_C@_0FO@NFPJPAIH@d?3?2aerlin_toaa?2toaa?2sourcework?2@ 000000018000b2f0     MyCharacter.gen.cpp.obj
 0002:00006350       ??_C@_0GB@PKDFNNII@d?3?2aerlin_toaa?2toaa?2sourcework?2@ 000000018000b350     MyCharacter.gen.cpp.obj
 0002:000063b8       ??_C@_0BH@FELKCGNG@AllocationFlags?$FLIndex?$FN@ 000000018000b3b8     MyCharacter.gen.cpp.obj
 0002:000063d0       ??_C@_0BG@BCIGGIBL@Index?5?$DM?5GetMaxIndex?$CI?$CJ@ 000000018000b3d0     MyCharacter.gen.cpp.obj
 0002:000063e8       ??_C@_0BI@PKCIFDOP@?$CBAllocationFlags?$FLIndex?$FN@ 000000018000b3e8     MyCharacter.gen.cpp.obj
 0002:00006400       ??_C@_0CN@HJKOPGBP@StartIndex?5?$DO?$DN?50?5?$CG?$CG?5StartIndex?5?$DM@ 000000018000b400     MyCharacter.gen.cpp.obj
 0002:00006430       ??_7?$TClassCompiledInDefer@VAMyCharacter@@@@6B@ 000000018000b430     MyCharacter.gen.cpp.obj
 0002:00006440       ??_7FFieldCompiledInInfo@@6B@ 000000018000b440     MyCharacter.gen.cpp.obj
 0002:00006450       ??_C@_0BK@ECNPCLCB@Index?$DO?$DN0?5?$CG?$CG?5Index?$DMNumBits@ 000000018000b450     MyCharacter.gen.cpp.obj
 0002:00006498       _pRawDllMain               000000018000b498     MSVCRT:dll_dllmain.obj
 0002:00006498       _pDefaultRawDllMain        000000018000b498     MSVCRT:dll_dllmain.obj
 0002:00006500       _load_config_used          000000018000b500     MSVCRT:loadcfg.obj
 0002:000068c8       __rtc_iaa                  000000018000b8c8     MSVCRT:_initsect_.obj
 0002:000068d0       __rtc_izz                  000000018000b8d0     MSVCRT:_initsect_.obj
 0002:000068d8       __rtc_taa                  000000018000b8d8     MSVCRT:_initsect_.obj
 0002:000068e0       __rtc_tzz                  000000018000b8e0     MSVCRT:_initsect_.obj
 0002:000071dc       __IMPORT_DESCRIPTOR_UE4Editor-Engine 000000018000c1dc     UE4Editor-Engine:UE4Editor-Engine.dll
 0002:000071f0       __IMPORT_DESCRIPTOR_UE4Editor-Core 000000018000c1f0     UE4Editor-Core:UE4Editor-Core.dll
 0002:00007204       __IMPORT_DESCRIPTOR_UE4Editor-CoreUObject 000000018000c204     UE4Editor-CoreUObject:UE4Editor-CoreUObject.dll
 0002:00007218       __IMPORT_DESCRIPTOR_VCRUNTIME140 000000018000c218     vcruntime:VCRUNTIME140.dll
 0002:0000722c       __IMPORT_DESCRIPTOR_api-ms-win-crt-runtime-l1-1-0 000000018000c22c     ucrt:api-ms-win-crt-runtime-l1-1-0.dll
 0002:00007240       __IMPORT_DESCRIPTOR_KERNEL32 000000018000c240     kernel32:KERNEL32.dll
 0002:00007254       __NULL_IMPORT_DESCRIPTOR   000000018000c254     UE4Editor-Engine:UE4Editor-Engine.dll
 0003:00000060       ?DependentSingletons@Z_Construct_UClass_AMyCharacter_Statics@@2QBQ6APEAVUObject@@XZB 0000000180012060     MyCharacter.gen.cpp.obj
 0003:00000098       _fltused                   0000000180012098     MSVCRT:fltused.obj
 0003:0000009c       __scrt_native_dllmain_reason 000000018001209c     MSVCRT:utility.obj
 0003:000000a0       __security_cookie_complement 00000001800120a0     MSVCRT:gs_cookie.obj
 0003:000000a8       __security_cookie          00000001800120a8     MSVCRT:gs_cookie.obj
 0003:000000b0       __isa_available            00000001800120b0     MSVCRT:_cpu_disp_.obj
 0003:000000b4       __isa_enabled              00000001800120b4     MSVCRT:_cpu_disp_.obj
 0003:000000b8       __memcpy_nt_iters          00000001800120b8     MSVCRT:_cpu_disp_.obj
 0003:000000c0       __scrt_ucrt_dll_is_in_use  00000001800120c0     MSVCRT:ucrt_stubs.obj
 0003:000001f0       ?GFNameTableForDebuggerVisualizers_MT@@3PEAPEAPEAUFNameEntry@@EA 00000001800121f0     ECSLearning.cpp.obj
 0003:000001f8       ?GObjectArrayForDebugVisualizers@@3AEAPEAVFChunkedFixedUObjectArray@@EA 00000001800121f8     ECSLearning.cpp.obj
 0003:00000d80       ?_OptionsStorage@?1??__local_stdio_printf_options@@9@4_KA 0000000180012d80     legacy_stdio_wide_specifiers:legacy_stdio_wide_specifiers.obj
 0003:00000d88       ?_OptionsStorage@?1??__local_stdio_scanf_options@@9@4_KA 0000000180012d88     legacy_stdio_wide_specifiers:legacy_stdio_wide_specifiers.obj
 0003:00000da0       ?__type_info_root_node@@3U__type_info_node@@A 0000000180012da0     MSVCRT:tncleanup.obj
 0003:00000db0       __scrt_current_native_startup_state 0000000180012db0     MSVCRT:utility.obj
 0003:00000db8       __scrt_native_startup_lock 0000000180012db8     MSVCRT:utility.obj
 0003:00000df8       __scrt_debugger_hook_flag  0000000180012df8     MSVCRT:utility_desktop.obj
 0003:00000dfc       __favor                    0000000180012dfc     MSVCRT:_cpu_disp_.obj
 0003:00000e00       __dyn_tls_init_callback    0000000180012e00     <common>

 entry point at        0001:00002548

 Static symbols

 0000:fffd9000       .debug$S                   0000000180000000     UE4Editor-Engine:UE4Editor-Engine.dll
 0000:fffd9000       .debug$S                   0000000180000000     UE4Editor-Engine:UE4Editor-Engine.dll
 0002:ffffb000       $unwind$??_H@YAXPEAX_K1P6APEAX0@Z@Z 0000000180000000     MyCharacter.gen.cpp.obj
 0004:fffed000       $pdata$??_H@YAXPEAX_K1P6APEAX0@Z@Z 0000000180000000     MyCharacter.gen.cpp.obj
 0002:ffffb000       $unwind$??__G@YAXPEAX0_K1P6APEAX00@Z@Z 0000000180000000     MyCharacter.gen.cpp.obj
 0004:fffed000       $pdata$??__G@YAXPEAX0_K1P6APEAX00@Z@Z 0000000180000000     MyCharacter.gen.cpp.obj
 0002:ffffb000       $chain$0$??__G@YAXPEAX0_K1P6APEAX00@Z@Z 0000000180000000     MyCharacter.gen.cpp.obj
 0004:fffed000       $pdata$0$??__G@YAXPEAX0_K1P6APEAX00@Z@Z 0000000180000000     MyCharacter.gen.cpp.obj
 0002:ffffb000       $chain$1$??__G@YAXPEAX0_K1P6APEAX00@Z@Z 0000000180000000     MyCharacter.gen.cpp.obj
 0004:fffed000       $pdata$1$??__G@YAXPEAX0_K1P6APEAX00@Z@Z 0000000180000000     MyCharacter.gen.cpp.obj
 0002:ffffb000       $unwind$?GetMoveGoalOffset@INavAgentInterface@@UEBA?AUFVector@@PEAVAActor@@@Z 0000000180000000     MyCharacter.gen.cpp.obj
 0004:fffed000       $pdata$?GetMoveGoalOffset@INavAgentInterface@@UEBA?AUFVector@@PEAVAActor@@@Z 0000000180000000     MyCharacter.gen.cpp.obj
 0000:fffd9000       .debug$S                   0000000180000000     UE4Editor-Engine:UE4Editor-Engine.dll
 0002:ffffb000       $unwind$??2AMyCharacter@@SAPEAX_KW4EInternal@@PEAVUObject@@VFName@@W4EObjectFlags@@@Z 0000000180000000     MyCharacter.gen.cpp.obj
 0004:fffed000       $pdata$??2AMyCharacter@@SAPEAX_KW4EInternal@@PEAVUObject@@VFName@@W4EObjectFlags@@@Z 0000000180000000     MyCharacter.gen.cpp.obj
 0000:fffd9000       .debug$S                   0000000180000000     UE4Editor-Engine:UE4Editor-Engine.dll
 0002:ffffb000       $unwind$?__VTableCtorCaller@AMyCharacter@@SAPEAVUObject@@AEAVFVTableHelper@@@Z 0000000180000000     MyCharacter.gen.cpp.obj
 0004:fffed000       $pdata$?__VTableCtorCaller@AMyCharacter@@SAPEAVUObject@@AEAVFVTableHelper@@@Z 0000000180000000     MyCharacter.gen.cpp.obj
 0002:ffffb000       $unwind$??_GAMyCharacter@@UEAAPEAXI@Z 0000000180000000     MyCharacter.gen.cpp.obj
 0004:fffed000       $pdata$??_GAMyCharacter@@UEAAPEAXI@Z 0000000180000000     MyCharacter.gen.cpp.obj
 0002:ffffb000       $unwind$??_EAMyCharacter@@UEAAPEAXI@Z 0000000180000000     MyCharacter.gen.cpp.obj
 0004:fffed000       $pdata$??_EAMyCharacter@@UEAAPEAXI@Z 0000000180000000     MyCharacter.gen.cpp.obj
 0002:ffffb000       $cppxdata$??_EAMyCharacter@@UEAAPEAXI@Z 0000000180000000     MyCharacter.gen.cpp.obj
 0002:ffffb000       $ip2state$??_EAMyCharacter@@UEAAPEAXI@Z 0000000180000000     MyCharacter.gen.cpp.obj
 0000:fffd9000       .debug$S                   0000000180000000     UE4Editor-Engine:UE4Editor-Engine.dll
 0000:fffd9000       .debug$S                   0000000180000000     UE4Editor-Engine:UE4Editor-Engine.dll
 0000:fffd9000       .debug$S                   0000000180000000     UE4Editor-Engine:UE4Editor-Engine.dll
 0000:fffd9000       .debug$S                   0000000180000000     UE4Editor-Engine:UE4Editor-Engine.dll
 0000:fffd9000       .debug$S                   0000000180000000     UE4Editor-Engine:UE4Editor-Engine.dll
 0000:fffd9000       .debug$S                   0000000180000000     UE4Editor-Engine:UE4Editor-Engine.dll
 0000:fffd9000       .debug$S                   0000000180000000     UE4Editor-Engine:UE4Editor-Engine.dll
 0000:fffd9000       .debug$S                   0000000180000000     UE4Editor-Engine:UE4Editor-Engine.dll
 0000:fffd9000       .debug$S                   0000000180000000     UE4Editor-Engine:UE4Editor-Engine.dll
 0000:fffd9000       .debug$S                   0000000180000000     UE4Editor-Engine:UE4Editor-Engine.dll
 0000:fffd9000       .debug$S                   0000000180000000     UE4Editor-Engine:UE4Editor-Engine.dll
 0000:fffd9000       .debug$S                   0000000180000000     UE4Editor-Engine:UE4Editor-Engine.dll
 0000:fffd9000       .debug$S                   0000000180000000     UE4Editor-Engine:UE4Editor-Engine.dll
 0000:fffd9000       .debug$S                   0000000180000000     UE4Editor-ECSLearning-1905.suppressed.exp
 0000:fffd9000       .debug$S                   0000000180000000     UE4Editor-Engine:UE4Editor-Engine.dll
 0000:fffd9000       .debug$S                   0000000180000000     UE4Editor-Engine:UE4Editor-Engine.dll
 0000:fffd9000       .debug$S                   0000000180000000     kernel32:KERNEL32.dll
 0000:fffd9000       .debug$S                   0000000180000000     kernel32:KERNEL32.dll
 0000:fffd9000       .debug$S                   0000000180000000     kernel32:KERNEL32.dll
 0000:fffd9000       .debug$S                   0000000180000000     kernel32:KERNEL32.dll
 0000:fffd9000       .debug$S                   0000000180000000     kernel32:KERNEL32.dll
 0000:fffd9000       .debug$S                   0000000180000000     kernel32:KERNEL32.dll
 0000:fffd9000       .debug$S                   0000000180000000     kernel32:KERNEL32.dll
 0000:fffd9000       .debug$S                   0000000180000000     kernel32:KERNEL32.dll
 0000:fffd9000       .debug$S                   0000000180000000     kernel32:KERNEL32.dll
 0000:fffd9000       .debug$S                   0000000180000000     kernel32:KERNEL32.dll
 0000:fffd9000       .debug$S                   0000000180000000     kernel32:KERNEL32.dll
 0000:fffd9000       .debug$S                   0000000180000000     kernel32:KERNEL32.dll
 0000:fffd9000       .debug$S                   0000000180000000     kernel32:KERNEL32.dll
 0000:fffd9000       .debug$S                   0000000180000000     kernel32:KERNEL32.dll
 0000:fffd9000       .debug$S                   0000000180000000     kernel32:KERNEL32.dll
 0000:fffd9000       .debug$S                   0000000180000000     UE4Editor-Engine:UE4Editor-Engine.dll
 0000:fffd9000       .debug$S                   0000000180000000     ucrt:api-ms-win-crt-runtime-l1-1-0.dll
 0000:fffd9000       .debug$S                   0000000180000000     ucrt:api-ms-win-crt-runtime-l1-1-0.dll
 0000:fffd9000       .debug$S                   0000000180000000     ucrt:api-ms-win-crt-runtime-l1-1-0.dll
 0000:fffd9000       .debug$S                   0000000180000000     ucrt:api-ms-win-crt-runtime-l1-1-0.dll
 0000:fffd9000       .debug$S                   0000000180000000     ucrt:api-ms-win-crt-runtime-l1-1-0.dll
 0000:fffd9000       .debug$S                   0000000180000000     ucrt:api-ms-win-crt-runtime-l1-1-0.dll
 0000:fffd9000       .debug$S                   0000000180000000     ucrt:api-ms-win-crt-runtime-l1-1-0.dll
 0000:fffd9000       .debug$S                   0000000180000000     ucrt:api-ms-win-crt-runtime-l1-1-0.dll
 0000:fffd9000       .debug$S                   0000000180000000     ucrt:api-ms-win-crt-runtime-l1-1-0.dll
 0000:fffd9000       .debug$S                   0000000180000000     ucrt:api-ms-win-crt-runtime-l1-1-0.dll
 0000:fffd9000       .debug$S                   0000000180000000     ucrt:api-ms-win-crt-runtime-l1-1-0.dll
 0000:fffd9000       .debug$S                   0000000180000000     ucrt:api-ms-win-crt-runtime-l1-1-0.dll
 0000:fffd9000       .debug$S                   0000000180000000     UE4Editor-Engine:UE4Editor-Engine.dll
 0000:fffd9000       .debug$S                   0000000180000000     vcruntime:VCRUNTIME140.dll
 0000:fffd9000       .debug$S                   0000000180000000     vcruntime:VCRUNTIME140.dll
 0000:fffd9000       .debug$S                   0000000180000000     vcruntime:VCRUNTIME140.dll
 0000:fffd9000       .debug$S                   0000000180000000     vcruntime:VCRUNTIME140.dll
 0000:fffd9000       .debug$S                   0000000180000000     vcruntime:VCRUNTIME140.dll
 0000:fffd9000       .debug$S                   0000000180000000     vcruntime:VCRUNTIME140.dll
 0000:fffd9000       .debug$S                   0000000180000000     vcruntime:VCRUNTIME140.dll
 0000:fffd9000       .debug$S                   0000000180000000     UE4Editor-Engine:UE4Editor-Engine.dll
 0000:fffd9000       .debug$S                   0000000180000000     UE4Editor-Engine:UE4Editor-Engine.dll
 0000:fffd9000       .debug$S                   0000000180000000     UE4Editor-Engine:UE4Editor-Engine.dll
 0000:fffd9000       .debug$S                   0000000180000000     UE4Editor-Engine:UE4Editor-Engine.dll
 0000:fffd9000       .debug$S                   0000000180000000     UE4Editor-Engine:UE4Editor-Engine.dll
 0000:fffd9000       .debug$S                   0000000180000000     UE4Editor-Engine:UE4Editor-Engine.dll
 0000:fffd9000       .debug$S                   0000000180000000     UE4Editor-Engine:UE4Editor-Engine.dll
 0000:fffd9000       .debug$S                   0000000180000000     UE4Editor-Engine:UE4Editor-Engine.dll
 0000:fffd9000       .debug$S                   0000000180000000     UE4Editor-Engine:UE4Editor-Engine.dll
 0000:fffd9000       .debug$S                   0000000180000000     UE4Editor-Engine:UE4Editor-Engine.dll
 0000:fffd9000       .debug$S                   0000000180000000     UE4Editor-Engine:UE4Editor-Engine.dll
 0000:fffd9000       .debug$S                   0000000180000000     UE4Editor-Engine:UE4Editor-Engine.dll
 0002:ffffb000       __guard_fids___scrt_set_unhandled_exception_filter 0000000180000000     MSVCRT:utility_desktop.obj
 0000:fffd9000       .debug$S                   0000000180000000     UE4Editor-Engine:UE4Editor-Engine.dll
 0000:fffd9000       .debug$S                   0000000180000000     UE4Editor-Engine:UE4Editor-Engine.dll
 0000:fffd9000       .debug$S                   0000000180000000     UE4Editor-Engine:UE4Editor-Engine.dll
 0000:fffd9000       .debug$S                   0000000180000000     UE4Editor-Engine:UE4Editor-Engine.dll
 0000:fffd9000       .debug$S                   0000000180000000     UE4Editor-Engine:UE4Editor-Engine.dll
 0000:fffd9000       .debug$S                   0000000180000000     UE4Editor-Engine:UE4Editor-Engine.dll
 0000:fffd9000       .debug$S                   0000000180000000     UE4Editor-Engine:UE4Editor-Engine.dll
 0000:fffd9000       .debug$S                   0000000180000000     UE4Editor-Engine:UE4Editor-Engine.dll
 0000:fffd9000       .debug$S                   0000000180000000     UE4Editor-Engine:UE4Editor-Engine.dll
 0000:fffd9000       .debug$S                   0000000180000000     UE4Editor-Engine:UE4Editor-Engine.dll
 0000:fffd9000       .debug$S                   0000000180000000     UE4Editor-Engine:UE4Editor-Engine.dll
 0000:fffd9000       .debug$S                   0000000180000000     UE4Editor-Engine:UE4Editor-Engine.dll
 0000:fffd9000       .debug$S                   0000000180000000     UE4Editor-Engine:UE4Editor-Engine.dll
 0000:fffd9000       .debug$S                   0000000180000000     UE4Editor-Engine:UE4Editor-Engine.dll
 0000:fffd9000       .debug$S                   0000000180000000     UE4Editor-Engine:UE4Editor-Engine.dll
 0000:fffd9000       .debug$S                   0000000180000000     UE4Editor-Engine:UE4Editor-Engine.dll
 0000:fffd9000       .debug$S                   0000000180000000     UE4Editor-Engine:UE4Editor-Engine.dll
 0000:fffd9000       .debug$S                   0000000180000000     UE4Editor-Engine:UE4Editor-Engine.dll
 0000:fffd9000       .debug$S                   0000000180000000     UE4Editor-Engine:UE4Editor-Engine.dll
 0000:fffd9000       .debug$S                   0000000180000000     UE4Editor-Engine:UE4Editor-Engine.dll
 0000:fffd9000       .debug$S                   0000000180000000     UE4Editor-Engine:UE4Editor-Engine.dll
 0000:fffd9000       .debug$S                   0000000180000000     UE4Editor-Engine:UE4Editor-Engine.dll
 0000:fffd9000       .debug$S                   0000000180000000     UE4Editor-Engine:UE4Editor-Engine.dll
 0000:fffd9000       .debug$S                   0000000180000000     UE4Editor-Engine:UE4Editor-Engine.dll
 0000:fffd9000       .debug$S                   0000000180000000     UE4Editor-Engine:UE4Editor-Engine.dll
 0000:fffd9000       .debug$S                   0000000180000000     UE4Editor-Engine:UE4Editor-Engine.dll
 0000:fffd9000       .debug$S                   0000000180000000     UE4Editor-Engine:UE4Editor-Engine.dll
 0000:fffd9000       .debug$S                   0000000180000000     UE4Editor-Engine:UE4Editor-Engine.dll
 0000:fffd9000       .debug$S                   0000000180000000     UE4Editor-Engine:UE4Editor-Engine.dll
 0000:fffd9000       .debug$S                   0000000180000000     UE4Editor-Engine:UE4Editor-Engine.dll
 0000:fffd9000       .debug$S                   0000000180000000     UE4Editor-Engine:UE4Editor-Engine.dll
 0000:fffd9000       .debug$S                   0000000180000000     UE4Editor-Engine:UE4Editor-Engine.dll
 0000:fffd9000       .debug$S                   0000000180000000     UE4Editor-Engine:UE4Editor-Engine.dll
 0000:fffd9000       .debug$S                   0000000180000000     UE4Editor-Engine:UE4Editor-Engine.dll
 0000:fffd9000       .debug$S                   0000000180000000     UE4Editor-Engine:UE4Editor-Engine.dll
 0000:fffd9000       .debug$S                   0000000180000000     UE4Editor-Engine:UE4Editor-Engine.dll
 0000:fffd9000       .debug$S                   0000000180000000     UE4Editor-Engine:UE4Editor-Engine.dll
 0000:fffd9000       .debug$S                   0000000180000000     UE4Editor-Engine:UE4Editor-Engine.dll
 0002:ffffb000       $unwind$??_H@YAXPEAX_K1P6APEAX0@Z@Z 0000000180000000     MyCharacter.cpp.obj
 0004:fffed000       $pdata$??_H@YAXPEAX_K1P6APEAX0@Z@Z 0000000180000000     MyCharacter.cpp.obj
 0004:fffed000       $pdata$??_H@YAXPEAX_K1P6APEAX0@Z@Z 0000000180000000     ECSLearning.init.gen.cpp.obj
 0002:ffffb000       $unwind$??_H@YAXPEAX_K1P6APEAX0@Z@Z 0000000180000000     ECSLearning.init.gen.cpp.obj
 0000:fffd9000       .debug$S                   0000000180000000     UE4Editor-Engine:UE4Editor-Engine.dll
 0000:fffd9000       .debug$S                   0000000180000000     UE4Editor-Engine:UE4Editor-Engine.dll
 0000:fffd9000       .debug$S                   0000000180000000     UE4Editor-Engine:UE4Editor-Engine.dll
 0000:fffd9000       .debug$S                   0000000180000000     UE4Editor-Engine:UE4Editor-Engine.dll
 0000:fffd9000       .debug$S                   0000000180000000     UE4Editor-Engine:UE4Editor-Engine.dll
 0000:fffd9000       .debug$S                   0000000180000000     UE4Editor-Engine:UE4Editor-Engine.dll
 0000:fffd9000       .debug$S                   0000000180000000     UE4Editor-Engine:UE4Editor-Engine.dll
 0000:fffd9000       .debug$S                   0000000180000000     UE4Editor-Engine:UE4Editor-Engine.dll
 0000:fffd9000       .debug$S                   0000000180000000     UE4Editor-Engine:UE4Editor-Engine.dll
 0000:fffd9000       .debug$S                   0000000180000000     UE4Editor-Engine:UE4Editor-Engine.dll
 0000:fffd9000       .debug$S                   0000000180000000     UE4Editor-Engine:UE4Editor-Engine.dll
 0000:fffd9000       .debug$S                   0000000180000000     UE4Editor-Engine:UE4Editor-Engine.dll
 0002:ffffb000       __guard_fids__guard_icall_checks_enforced 0000000180000000     MSVCRT:guard_support.obj
 0002:ffffb000       __guard_fids__             0000000180000000     MSVCRT:guard_support.obj
 0000:fffd9000       .debug$S                   0000000180000000     UE4Editor-Engine:UE4Editor-Engine.dll
 0000:fffd9000       .debug$S                   0000000180000000     UE4Editor-Engine:UE4Editor-Engine.dll
 0000:fffd9000       .debug$S                   0000000180000000     UE4Editor-Engine:UE4Editor-Engine.dll
 0000:fffd9000       .debug$S                   0000000180000000     UE4Editor-Engine:UE4Editor-Engine.dll
 0000:fffd9000       .debug$S                   0000000180000000     UE4Editor-Engine:UE4Editor-Engine.dll
 0000:fffd9000       .debug$S                   0000000180000000     UE4Editor-Engine:UE4Editor-Engine.dll
 0000:fffd9000       .debug$S                   0000000180000000     UE4Editor-Engine:UE4Editor-Engine.dll
 0002:ffffb000       __guard_fids_?dllmain_dispatch@@YAHQEAUHINSTANCE__@@KQEAX@Z 0000000180000000     MSVCRT:dll_dllmain.obj
 0000:fffd9000       .debug$S                   0000000180000000     UE4Editor-Engine:UE4Editor-Engine.dll
 0000:fffd9000       .debug$S                   0000000180000000     UE4Editor-Engine:UE4Editor-Engine.dll
 0000:fffd9000       .debug$S                   0000000180000000     UE4Editor-Engine:UE4Editor-Engine.dll
 0000:fffd9000       .debug$S                   0000000180000000     UE4Editor-Engine:UE4Editor-Engine.dll
 0000:fffd9000       .debug$S                   0000000180000000     UE4Editor-Engine:UE4Editor-Engine.dll
 0000:fffd9000       .debug$S                   0000000180000000     UE4Editor-Engine:UE4Editor-Engine.dll
 0000:fffd9000       .debug$S                   0000000180000000     UE4Editor-Engine:UE4Editor-Engine.dll
 0000:fffd9000       .debug$S                   0000000180000000     UE4Editor-Engine:UE4Editor-Engine.dll
 0000:fffd9000       .debug$S                   0000000180000000     UE4Editor-Engine:UE4Editor-Engine.dll
 0000:fffd9000       .debug$S                   0000000180000000     UE4Editor-Engine:UE4Editor-Engine.dll
 0000:fffd9000       .debug$S                   0000000180000000     UE4Editor-Engine:UE4Editor-Engine.dll
 0000:fffd9000       .debug$S                   0000000180000000     UE4Editor-Engine:UE4Editor-Engine.dll
 0000:fffd9000       .debug$S                   0000000180000000     UE4Editor-Engine:UE4Editor-Engine.dll
 0000:fffd9000       .debug$S                   0000000180000000     UE4Editor-Engine:UE4Editor-Engine.dll
 0000:fffd9000       .debug$S                   0000000180000000     UE4Editor-Engine:UE4Editor-Engine.dll
 0000:fffd9000       .debug$S                   0000000180000000     UE4Editor-Engine:UE4Editor-Engine.dll
 0000:fffd9000       .debug$S                   0000000180000000     UE4Editor-Engine:UE4Editor-Engine.dll
 0000:fffd9000       .debug$S                   0000000180000000     UE4Editor-Engine:UE4Editor-Engine.dll
 0000:fffd9000       .debug$S                   0000000180000000     UE4Editor-Engine:UE4Editor-Engine.dll
 0000:fffd9000       .debug$S                   0000000180000000     UE4Editor-Engine:UE4Editor-Engine.dll
 0000:fffd9000       .debug$S                   0000000180000000     UE4Editor-Engine:UE4Editor-Engine.dll
 0000:fffd9000       .debug$S                   0000000180000000     UE4Editor-Engine:UE4Editor-Engine.dll
 0000:fffd9000       .debug$S                   0000000180000000     UE4Editor-Engine:UE4Editor-Engine.dll
 0000:fffd9000       .debug$S                   0000000180000000     UE4Editor-Engine:UE4Editor-Engine.dll
 0000:fffd9000       .debug$S                   0000000180000000     UE4Editor-Engine:UE4Editor-Engine.dll
 0000:fffd9000       .debug$S                   0000000180000000     UE4Editor-Engine:UE4Editor-Engine.dll
 0000:fffd9000       .debug$S                   0000000180000000     UE4Editor-Engine:UE4Editor-Engine.dll
 0000:fffd9000       .debug$S                   0000000180000000     UE4Editor-Engine:UE4Editor-Engine.dll
 0000:fffd9000       .debug$S                   0000000180000000     UE4Editor-Engine:UE4Editor-Engine.dll
 0000:fffd9000       .debug$S                   0000000180000000     UE4Editor-Engine:UE4Editor-Engine.dll
 0000:fffd9000       .debug$S                   0000000180000000     UE4Editor-Engine:UE4Editor-Engine.dll
 0000:fffd9000       .debug$S                   0000000180000000     UE4Editor-Engine:UE4Editor-Engine.dll
 0000:fffd9000       .debug$S                   0000000180000000     UE4Editor-Engine:UE4Editor-Engine.dll
 0002:ffffb000       __guard_fids__             0000000180000000     legacy_stdio_wide_specifiers:legacy_stdio_wide_specifiers.obj
 0000:fffd9000       .debug$S                   0000000180000000     UE4Editor-Engine:UE4Editor-Engine.dll
 0000:fffd9000       .debug$S                   0000000180000000     UE4Editor-Engine:UE4Editor-Engine.dll
 0000:fffd9000       .debug$S                   0000000180000000     UE4Editor-CoreUObject:UE4Editor-CoreUObject.dll
 0000:fffd9000       .debug$S                   0000000180000000     UE4Editor-CoreUObject:UE4Editor-CoreUObject.dll
 0000:fffd9000       .debug$S                   0000000180000000     UE4Editor-CoreUObject:UE4Editor-CoreUObject.dll
 0000:fffd9000       .debug$S                   0000000180000000     UE4Editor-CoreUObject:UE4Editor-CoreUObject.dll
 0000:fffd9000       .debug$S                   0000000180000000     UE4Editor-CoreUObject:UE4Editor-CoreUObject.dll
 0000:fffd9000       .debug$S                   0000000180000000     UE4Editor-CoreUObject:UE4Editor-CoreUObject.dll
 0000:fffd9000       .debug$S                   0000000180000000     UE4Editor-CoreUObject:UE4Editor-CoreUObject.dll
 0000:fffd9000       .debug$S                   0000000180000000     UE4Editor-CoreUObject:UE4Editor-CoreUObject.dll
 0000:fffd9000       .debug$S                   0000000180000000     UE4Editor-CoreUObject:UE4Editor-CoreUObject.dll
 0000:fffd9000       .debug$S                   0000000180000000     UE4Editor-CoreUObject:UE4Editor-CoreUObject.dll
 0000:fffd9000       .debug$S                   0000000180000000     UE4Editor-CoreUObject:UE4Editor-CoreUObject.dll
 0000:fffd9000       .debug$S                   0000000180000000     UE4Editor-CoreUObject:UE4Editor-CoreUObject.dll
 0000:fffd9000       .debug$S                   0000000180000000     UE4Editor-CoreUObject:UE4Editor-CoreUObject.dll
 0000:fffd9000       .debug$S                   0000000180000000     UE4Editor-CoreUObject:UE4Editor-CoreUObject.dll
 0000:fffd9000       .debug$S                   0000000180000000     UE4Editor-CoreUObject:UE4Editor-CoreUObject.dll
 0000:fffd9000       .debug$S                   0000000180000000     UE4Editor-CoreUObject:UE4Editor-CoreUObject.dll
 0000:fffd9000       .debug$S                   0000000180000000     UE4Editor-CoreUObject:UE4Editor-CoreUObject.dll
 0000:fffd9000       .debug$S                   0000000180000000     UE4Editor-CoreUObject:UE4Editor-CoreUObject.dll
 0000:fffd9000       .debug$S                   0000000180000000     UE4Editor-CoreUObject:UE4Editor-CoreUObject.dll
 0000:fffd9000       .debug$S                   0000000180000000     UE4Editor-CoreUObject:UE4Editor-CoreUObject.dll
 0000:fffd9000       .debug$S                   0000000180000000     UE4Editor-CoreUObject:UE4Editor-CoreUObject.dll
 0000:fffd9000       .debug$S                   0000000180000000     UE4Editor-CoreUObject:UE4Editor-CoreUObject.dll
 0000:fffd9000       .debug$S                   0000000180000000     UE4Editor-CoreUObject:UE4Editor-CoreUObject.dll
 0000:fffd9000       .debug$S                   0000000180000000     UE4Editor-CoreUObject:UE4Editor-CoreUObject.dll
 0000:fffd9000       .debug$S                   0000000180000000     UE4Editor-CoreUObject:UE4Editor-CoreUObject.dll
 0000:fffd9000       .debug$S                   0000000180000000     UE4Editor-CoreUObject:UE4Editor-CoreUObject.dll
 0000:fffd9000       .debug$S                   0000000180000000     UE4Editor-CoreUObject:UE4Editor-CoreUObject.dll
 0000:fffd9000       .debug$S                   0000000180000000     UE4Editor-CoreUObject:UE4Editor-CoreUObject.dll
 0000:fffd9000       .debug$S                   0000000180000000     UE4Editor-CoreUObject:UE4Editor-CoreUObject.dll
 0000:fffd9000       .debug$S                   0000000180000000     UE4Editor-CoreUObject:UE4Editor-CoreUObject.dll
 0000:fffd9000       .debug$S                   0000000180000000     UE4Editor-CoreUObject:UE4Editor-CoreUObject.dll
 0000:fffd9000       .debug$S                   0000000180000000     UE4Editor-CoreUObject:UE4Editor-CoreUObject.dll
 0000:fffd9000       .debug$S                   0000000180000000     UE4Editor-CoreUObject:UE4Editor-CoreUObject.dll
 0000:fffd9000       .debug$S                   0000000180000000     UE4Editor-CoreUObject:UE4Editor-CoreUObject.dll
 0000:fffd9000       .debug$S                   0000000180000000     UE4Editor-CoreUObject:UE4Editor-CoreUObject.dll
 0000:fffd9000       .debug$S                   0000000180000000     UE4Editor-CoreUObject:UE4Editor-CoreUObject.dll
 0000:fffd9000       .debug$S                   0000000180000000     UE4Editor-CoreUObject:UE4Editor-CoreUObject.dll
 0000:fffd9000       .debug$S                   0000000180000000     UE4Editor-CoreUObject:UE4Editor-CoreUObject.dll
 0000:fffd9000       .debug$S                   0000000180000000     UE4Editor-CoreUObject:UE4Editor-CoreUObject.dll
 0000:fffd9000       .debug$S                   0000000180000000     UE4Editor-CoreUObject:UE4Editor-CoreUObject.dll
 0000:fffd9000       .debug$S                   0000000180000000     UE4Editor-CoreUObject:UE4Editor-CoreUObject.dll
 0000:fffd9000       .debug$S                   0000000180000000     UE4Editor-CoreUObject:UE4Editor-CoreUObject.dll
 0000:fffd9000       .debug$S                   0000000180000000     UE4Editor-CoreUObject:UE4Editor-CoreUObject.dll
 0000:fffd9000       .debug$S                   0000000180000000     UE4Editor-CoreUObject:UE4Editor-CoreUObject.dll
 0000:fffd9000       .debug$S                   0000000180000000     UE4Editor-CoreUObject:UE4Editor-CoreUObject.dll
 0000:fffd9000       .debug$S                   0000000180000000     UE4Editor-CoreUObject:UE4Editor-CoreUObject.dll
 0000:fffd9000       .debug$S                   0000000180000000     UE4Editor-CoreUObject:UE4Editor-CoreUObject.dll
 0000:fffd9000       .debug$S                   0000000180000000     UE4Editor-CoreUObject:UE4Editor-CoreUObject.dll
 0000:fffd9000       .debug$S                   0000000180000000     UE4Editor-CoreUObject:UE4Editor-CoreUObject.dll
 0000:fffd9000       .debug$S                   0000000180000000     UE4Editor-CoreUObject:UE4Editor-CoreUObject.dll
 0000:fffd9000       .debug$S                   0000000180000000     UE4Editor-CoreUObject:UE4Editor-CoreUObject.dll
 0000:fffd9000       .debug$S                   0000000180000000     UE4Editor-CoreUObject:UE4Editor-CoreUObject.dll
 0000:fffd9000       .debug$S                   0000000180000000     UE4Editor-CoreUObject:UE4Editor-CoreUObject.dll
 0000:fffd9000       .debug$S                   0000000180000000     UE4Editor-CoreUObject:UE4Editor-CoreUObject.dll
 0000:fffd9000       .debug$S                   0000000180000000     UE4Editor-CoreUObject:UE4Editor-CoreUObject.dll
 0000:fffd9000       .debug$S                   0000000180000000     UE4Editor-CoreUObject:UE4Editor-CoreUObject.dll
 0000:fffd9000       .debug$S                   0000000180000000     UE4Editor-CoreUObject:UE4Editor-CoreUObject.dll
 0000:fffd9000       .debug$S                   0000000180000000     UE4Editor-CoreUObject:UE4Editor-CoreUObject.dll
 0000:fffd9000       .debug$S                   0000000180000000     UE4Editor-CoreUObject:UE4Editor-CoreUObject.dll
 0000:fffd9000       .debug$S                   0000000180000000     UE4Editor-CoreUObject:UE4Editor-CoreUObject.dll
 0000:fffd9000       .debug$S                   0000000180000000     UE4Editor-CoreUObject:UE4Editor-CoreUObject.dll
 0000:fffd9000       .debug$S                   0000000180000000     UE4Editor-CoreUObject:UE4Editor-CoreUObject.dll
 0000:fffd9000       .debug$S                   0000000180000000     UE4Editor-CoreUObject:UE4Editor-CoreUObject.dll
 0000:fffd9000       .debug$S                   0000000180000000     UE4Editor-CoreUObject:UE4Editor-CoreUObject.dll
 0000:fffd9000       .debug$S                   0000000180000000     UE4Editor-CoreUObject:UE4Editor-CoreUObject.dll
 0000:fffd9000       .debug$S                   0000000180000000     UE4Editor-CoreUObject:UE4Editor-CoreUObject.dll
 0000:fffd9000       .debug$S                   0000000180000000     UE4Editor-CoreUObject:UE4Editor-CoreUObject.dll
 0000:fffd9000       .debug$S                   0000000180000000     UE4Editor-CoreUObject:UE4Editor-CoreUObject.dll
 0000:fffd9000       .debug$S                   0000000180000000     UE4Editor-Engine:UE4Editor-Engine.dll
 0000:fffd9000       .debug$S                   0000000180000000     UE4Editor-Core:UE4Editor-Core.dll
 0000:fffd9000       .debug$S                   0000000180000000     UE4Editor-Core:UE4Editor-Core.dll
 0000:fffd9000       .debug$S                   0000000180000000     UE4Editor-Core:UE4Editor-Core.dll
 0000:fffd9000       .debug$S                   0000000180000000     UE4Editor-Core:UE4Editor-Core.dll
 0000:fffd9000       .debug$S                   0000000180000000     UE4Editor-Core:UE4Editor-Core.dll
 0000:fffd9000       .debug$S                   0000000180000000     UE4Editor-Core:UE4Editor-Core.dll
 0000:fffd9000       .debug$S                   0000000180000000     UE4Editor-Core:UE4Editor-Core.dll
 0000:fffd9000       .debug$S                   0000000180000000     UE4Editor-Core:UE4Editor-Core.dll
 0000:fffd9000       .debug$S                   0000000180000000     UE4Editor-Core:UE4Editor-Core.dll
 0000:fffd9000       .debug$S                   0000000180000000     UE4Editor-Core:UE4Editor-Core.dll
 0000:fffd9000       .debug$S                   0000000180000000     UE4Editor-Core:UE4Editor-Core.dll
 0000:fffd9000       .debug$S                   0000000180000000     UE4Editor-Core:UE4Editor-Core.dll
 0000:fffd9000       .debug$S                   0000000180000000     UE4Editor-Core:UE4Editor-Core.dll
 0000:fffd9000       .debug$S                   0000000180000000     UE4Editor-Core:UE4Editor-Core.dll
 0000:fffd9000       .debug$S                   0000000180000000     UE4Editor-Engine:UE4Editor-Engine.dll
 0000:fffd9000       .debug$S                   0000000180000000     UE4Editor-Engine:UE4Editor-Engine.dll
 0000:fffd9000       .debug$S                   0000000180000000     UE4Editor-Engine:UE4Editor-Engine.dll
 0000:fffd9000       .debug$S                   0000000180000000     UE4Editor-Engine:UE4Editor-Engine.dll
 0000:fffd9000       .debug$S                   0000000180000000     UE4Editor-Engine:UE4Editor-Engine.dll
 0000:fffd9000       .debug$S                   0000000180000000     UE4Editor-Engine:UE4Editor-Engine.dll
 0000:fffd9000       .debug$S                   0000000180000000     UE4Editor-Engine:UE4Editor-Engine.dll
 0000:fffd9000       .debug$S                   0000000180000000     UE4Editor-Engine:UE4Editor-Engine.dll
 0000:fffd9000       .debug$S                   0000000180000000     UE4Editor-Engine:UE4Editor-Engine.dll
 0000:fffd9000       .debug$S                   0000000180000000     UE4Editor-Engine:UE4Editor-Engine.dll
 0000:fffd9000       .debug$S                   0000000180000000     UE4Editor-Engine:UE4Editor-Engine.dll
 0000:fffd9000       .debug$S                   0000000180000000     UE4Editor-Engine:UE4Editor-Engine.dll
 0000:fffd9000       .debug$S                   0000000180000000     UE4Editor-Engine:UE4Editor-Engine.dll
 0000:fffd9000       .debug$S                   0000000180000000     UE4Editor-Engine:UE4Editor-Engine.dll
 0000:fffd9000       .debug$S                   0000000180000000     UE4Editor-Engine:UE4Editor-Engine.dll
 0000:fffd9000       .debug$S                   0000000180000000     UE4Editor-Engine:UE4Editor-Engine.dll
 0000:fffd9000       .debug$S                   0000000180000000     UE4Editor-Engine:UE4Editor-Engine.dll
 0000:fffd9000       .debug$S                   0000000180000000     UE4Editor-Engine:UE4Editor-Engine.dll
 0000:fffd9000       .debug$S                   0000000180000000     UE4Editor-Engine:UE4Editor-Engine.dll
 0000:fffd9000       .debug$S                   0000000180000000     UE4Editor-Engine:UE4Editor-Engine.dll
 0000:fffd9000       .debug$S                   0000000180000000     UE4Editor-Engine:UE4Editor-Engine.dll
 0000:fffd9000       .debug$S                   0000000180000000     UE4Editor-Engine:UE4Editor-Engine.dll
 0000:fffd9000       .debug$S                   0000000180000000     UE4Editor-Engine:UE4Editor-Engine.dll
 0000:fffd9000       .debug$S                   0000000180000000     UE4Editor-Engine:UE4Editor-Engine.dll
 0000:fffd9000       .debug$S                   0000000180000000     UE4Editor-Engine:UE4Editor-Engine.dll
 0000:fffd9000       .debug$S                   0000000180000000     UE4Editor-Engine:UE4Editor-Engine.dll
 0000:fffd9000       .debug$S                   0000000180000000     UE4Editor-Engine:UE4Editor-Engine.dll
 0000:fffd9000       .debug$S                   0000000180000000     UE4Editor-Engine:UE4Editor-Engine.dll
 0000:fffd9000       .debug$S                   0000000180000000     UE4Editor-Engine:UE4Editor-Engine.dll
 0000:fffd9000       .debug$S                   0000000180000000     UE4Editor-Engine:UE4Editor-Engine.dll
 0000:fffd9000       .debug$S                   0000000180000000     UE4Editor-Engine:UE4Editor-Engine.dll
 0000:fffd9000       .debug$S                   0000000180000000     UE4Editor-Engine:UE4Editor-Engine.dll
 0000:fffd9000       .debug$S                   0000000180000000     UE4Editor-Engine:UE4Editor-Engine.dll
 0000:fffd9000       .debug$S                   0000000180000000     UE4Editor-Engine:UE4Editor-Engine.dll
 0000:fffd9000       .debug$S                   0000000180000000     UE4Editor-Engine:UE4Editor-Engine.dll
 0000:fffd9000       .debug$S                   0000000180000000     UE4Editor-Engine:UE4Editor-Engine.dll
 0000:fffd9000       .debug$S                   0000000180000000     UE4Editor-Engine:UE4Editor-Engine.dll
 0000:fffd9000       .debug$S                   0000000180000000     UE4Editor-Engine:UE4Editor-Engine.dll
 0000:fffd9000       .debug$S                   0000000180000000     UE4Editor-Engine:UE4Editor-Engine.dll
 0000:fffd9000       .debug$S                   0000000180000000     UE4Editor-Engine:UE4Editor-Engine.dll
 0000:fffd9000       .debug$S                   0000000180000000     UE4Editor-Engine:UE4Editor-Engine.dll
 0000:fffd9000       .debug$S                   0000000180000000     UE4Editor-Engine:UE4Editor-Engine.dll
 0000:fffd9000       .debug$S                   0000000180000000     UE4Editor-Engine:UE4Editor-Engine.dll
 0000:fffd9000       .debug$S                   0000000180000000     UE4Editor-Engine:UE4Editor-Engine.dll
 0000:fffd9000       .debug$S                   0000000180000000     UE4Editor-Engine:UE4Editor-Engine.dll
 0000:fffd9000       .debug$S                   0000000180000000     UE4Editor-Engine:UE4Editor-Engine.dll
 0000:fffd9000       .debug$S                   0000000180000000     UE4Editor-Engine:UE4Editor-Engine.dll
 0000:fffd9000       .debug$S                   0000000180000000     UE4Editor-Engine:UE4Editor-Engine.dll
 0000:fffd9000       .debug$S                   0000000180000000     UE4Editor-Engine:UE4Editor-Engine.dll
 0000:fffd9000       .debug$S                   0000000180000000     UE4Editor-Engine:UE4Editor-Engine.dll
 0000:fffd9000       .debug$S                   0000000180000000     UE4Editor-Engine:UE4Editor-Engine.dll
 0000:fffd9000       .debug$S                   0000000180000000     UE4Editor-Engine:UE4Editor-Engine.dll
 0000:fffd9000       .debug$S                   0000000180000000     UE4Editor-Engine:UE4Editor-Engine.dll
 0000:fffd9000       .debug$S                   0000000180000000     UE4Editor-Engine:UE4Editor-Engine.dll
 0000:fffd9000       .debug$S                   0000000180000000     UE4Editor-Engine:UE4Editor-Engine.dll
 0000:fffd9000       .debug$S                   0000000180000000     UE4Editor-Engine:UE4Editor-Engine.dll
 0000:fffd9000       .debug$S                   0000000180000000     UE4Editor-Engine:UE4Editor-Engine.dll
 0000:fffd9000       .debug$S                   0000000180000000     UE4Editor-Engine:UE4Editor-Engine.dll
 0000:fffd9000       .debug$S                   0000000180000000     UE4Editor-Engine:UE4Editor-Engine.dll
 0000:fffd9000       .debug$S                   0000000180000000     UE4Editor-Engine:UE4Editor-Engine.dll
 0000:fffd9000       .debug$S                   0000000180000000     UE4Editor-Engine:UE4Editor-Engine.dll
 0000:fffd9000       .debug$S                   0000000180000000     UE4Editor-Engine:UE4Editor-Engine.dll
 0000:fffd9000       .debug$S                   0000000180000000     UE4Editor-Engine:UE4Editor-Engine.dll
 0000:fffd9000       .debug$S                   0000000180000000     UE4Editor-Engine:UE4Editor-Engine.dll
 0000:fffd9000       .debug$S                   0000000180000000     UE4Editor-Engine:UE4Editor-Engine.dll
 0000:fffd9000       .debug$S                   0000000180000000     UE4Editor-Engine:UE4Editor-Engine.dll
 0000:fffd9000       .debug$S                   0000000180000000     UE4Editor-Engine:UE4Editor-Engine.dll
 0000:fffd9000       .debug$S                   0000000180000000     UE4Editor-Engine:UE4Editor-Engine.dll
 0000:fffd9000       .debug$S                   0000000180000000     UE4Editor-Engine:UE4Editor-Engine.dll
 0000:fffd9000       .debug$S                   0000000180000000     UE4Editor-Engine:UE4Editor-Engine.dll
 0000:fffd9000       .debug$S                   0000000180000000     UE4Editor-Engine:UE4Editor-Engine.dll
 0000:fffd9000       .debug$S                   0000000180000000     UE4Editor-Engine:UE4Editor-Engine.dll
 0000:fffd9000       .debug$S                   0000000180000000     UE4Editor-Engine:UE4Editor-Engine.dll
 0000:fffd9000       .debug$S                   0000000180000000     UE4Editor-Engine:UE4Editor-Engine.dll
 0000:fffd9000       .debug$S                   0000000180000000     UE4Editor-Engine:UE4Editor-Engine.dll
 0000:fffd9000       .debug$S                   0000000180000000     UE4Editor-Engine:UE4Editor-Engine.dll
 0000:fffd9000       .debug$S                   0000000180000000     UE4Editor-Engine:UE4Editor-Engine.dll
 0000:fffd9000       .debug$S                   0000000180000000     UE4Editor-Engine:UE4Editor-Engine.dll
 0000:fffd9000       .debug$S                   0000000180000000     UE4Editor-Engine:UE4Editor-Engine.dll
 0000:fffd9000       .debug$S                   0000000180000000     UE4Editor-Engine:UE4Editor-Engine.dll
 0000:fffd9000       .debug$S                   0000000180000000     UE4Editor-Engine:UE4Editor-Engine.dll
 0000:fffd9000       .debug$S                   0000000180000000     UE4Editor-Engine:UE4Editor-Engine.dll
 0000:fffd9000       .debug$S                   0000000180000000     UE4Editor-Engine:UE4Editor-Engine.dll
 0000:fffd9000       .debug$S                   0000000180000000     UE4Editor-Engine:UE4Editor-Engine.dll
 0000:fffd9000       .debug$S                   0000000180000000     UE4Editor-Engine:UE4Editor-Engine.dll
 0000:fffd9000       .debug$S                   0000000180000000     UE4Editor-Engine:UE4Editor-Engine.dll
 0000:fffd9000       .debug$S                   0000000180000000     UE4Editor-Engine:UE4Editor-Engine.dll
 0000:fffd9000       .debug$S                   0000000180000000     UE4Editor-Engine:UE4Editor-Engine.dll
 0000:fffd9000       .debug$S                   0000000180000000     UE4Editor-Engine:UE4Editor-Engine.dll
 0000:fffd9000       .debug$S                   0000000180000000     UE4Editor-Engine:UE4Editor-Engine.dll
 0000:fffd9000       .debug$S                   0000000180000000     UE4Editor-Engine:UE4Editor-Engine.dll
 0000:fffd9000       .debug$S                   0000000180000000     UE4Editor-Engine:UE4Editor-Engine.dll
 0000:fffd9000       .debug$S                   0000000180000000     UE4Editor-Engine:UE4Editor-Engine.dll
 0000:fffd9000       .debug$S                   0000000180000000     UE4Editor-Engine:UE4Editor-Engine.dll
 0000:fffd9000       .debug$S                   0000000180000000     UE4Editor-Engine:UE4Editor-Engine.dll
 0000:fffd9000       .debug$S                   0000000180000000     UE4Editor-Engine:UE4Editor-Engine.dll
 0000:fffd9000       .debug$S                   0000000180000000     UE4Editor-Engine:UE4Editor-Engine.dll
 0000:fffd9000       .debug$S                   0000000180000000     UE4Editor-Engine:UE4Editor-Engine.dll
 0000:fffd9000       .debug$S                   0000000180000000     UE4Editor-Engine:UE4Editor-Engine.dll
 0000:fffd9000       .debug$S                   0000000180000000     UE4Editor-Engine:UE4Editor-Engine.dll
 0000:fffd9000       .debug$S                   0000000180000000     UE4Editor-Engine:UE4Editor-Engine.dll
 0000:fffd9000       .debug$S                   0000000180000000     UE4Editor-Engine:UE4Editor-Engine.dll
 0000:fffd9000       .debug$S                   0000000180000000     UE4Editor-Engine:UE4Editor-Engine.dll
 0000:fffd9000       .debug$S                   0000000180000000     UE4Editor-Engine:UE4Editor-Engine.dll
 0000:fffd9000       .debug$S                   0000000180000000     UE4Editor-Engine:UE4Editor-Engine.dll
 0000:fffd9000       .debug$S                   0000000180000000     UE4Editor-Engine:UE4Editor-Engine.dll
 0000:fffd9000       .debug$S                   0000000180000000     UE4Editor-Engine:UE4Editor-Engine.dll
 0000:fffd9000       .debug$S                   0000000180000000     UE4Editor-Engine:UE4Editor-Engine.dll
 0000:fffd9000       .debug$S                   0000000180000000     UE4Editor-Engine:UE4Editor-Engine.dll
 0000:fffd9000       .debug$S                   0000000180000000     UE4Editor-Engine:UE4Editor-Engine.dll
 0000:fffd9000       .debug$S                   0000000180000000     UE4Editor-Engine:UE4Editor-Engine.dll
 0000:fffd9000       .debug$S                   0000000180000000     UE4Editor-Engine:UE4Editor-Engine.dll
 0000:fffd9000       .debug$S                   0000000180000000     UE4Editor-Engine:UE4Editor-Engine.dll
 0000:fffd9000       .debug$S                   0000000180000000     UE4Editor-Engine:UE4Editor-Engine.dll
 0000:fffd9000       .debug$S                   0000000180000000     UE4Editor-Engine:UE4Editor-Engine.dll
 0000:fffd9000       .debug$S                   0000000180000000     UE4Editor-Engine:UE4Editor-Engine.dll
 0000:fffd9000       .debug$S                   0000000180000000     UE4Editor-Engine:UE4Editor-Engine.dll
 0000:fffd9000       .debug$S                   0000000180000000     UE4Editor-Engine:UE4Editor-Engine.dll
 0000:fffd9000       .debug$S                   0000000180000000     UE4Editor-Engine:UE4Editor-Engine.dll
 0000:fffd9000       .debug$S                   0000000180000000     UE4Editor-Engine:UE4Editor-Engine.dll
 0000:fffd9000       .debug$S                   0000000180000000     UE4Editor-Engine:UE4Editor-Engine.dll
 0000:fffd9000       .debug$S                   0000000180000000     UE4Editor-Engine:UE4Editor-Engine.dll
 0000:fffd9000       .debug$S                   0000000180000000     UE4Editor-Engine:UE4Editor-Engine.dll
 0000:fffd9000       .debug$S                   0000000180000000     UE4Editor-Engine:UE4Editor-Engine.dll
 0000:fffd9000       .debug$S                   0000000180000000     UE4Editor-Engine:UE4Editor-Engine.dll
 0000:fffd9000       .debug$S                   0000000180000000     UE4Editor-Engine:UE4Editor-Engine.dll
 0000:fffd9000       .debug$S                   0000000180000000     UE4Editor-Engine:UE4Editor-Engine.dll
 0000:fffd9000       .debug$S                   0000000180000000     UE4Editor-Engine:UE4Editor-Engine.dll
 0000:fffd9000       .debug$S                   0000000180000000     UE4Editor-Engine:UE4Editor-Engine.dll
 0001:00000000       ??__EA@VectorSinConstantsSSE@@YAXXZ 0000000180001000 f   ECSLearning.cpp.obj
 0001:00000020       ??__EAllMask@GlobalVectorConstants@@YAXXZ 0000000180001020 f   ECSLearning.cpp.obj
 0001:00000040       ??__EAnimWeightThreshold@GlobalVectorConstants@@YAXXZ 0000000180001040 f   ECSLearning.cpp.obj
 0001:00000050       ??__EB@VectorSinConstantsSSE@@YAXXZ 0000000180001050 f   ECSLearning.cpp.obj
 0001:00000070       ??__EBigNumber@GlobalVectorConstants@@YAXXZ 0000000180001070 f   ECSLearning.cpp.obj
 0001:00000080       ??__EDEG_TO_RAD@GlobalVectorConstants@@YAXXZ 0000000180001080 f   ECSLearning.cpp.obj
 0001:00000090       ??__EDEG_TO_RAD_HALF@GlobalVectorConstants@@YAXXZ 0000000180001090 f   ECSLearning.cpp.obj
 0001:000000a0       ??__EFloat0001@GlobalVectorConstants@@YAXXZ 00000001800010a0 f   ECSLearning.cpp.obj
 0001:000000b0       ??__EFloat111_Minus1@GlobalVectorConstants@@YAXXZ 00000001800010b0 f   ECSLearning.cpp.obj
 0001:000000c0       ??__EFloat127@GlobalVectorConstants@@YAXXZ 00000001800010c0 f   ECSLearning.cpp.obj
 0001:000000d0       ??__EFloat180@GlobalVectorConstants@@YAXXZ 00000001800010d0 f   ECSLearning.cpp.obj
 0001:000000e0       ??__EFloat255@GlobalVectorConstants@@YAXXZ 00000001800010e0 f   ECSLearning.cpp.obj
 0001:000000f0       ??__EFloat360@GlobalVectorConstants@@YAXXZ 00000001800010f0 f   ECSLearning.cpp.obj
 0001:00000100       ??__EFloatAlmostTwo@GlobalVectorConstants@@YAXXZ 0000000180001100 f   ECSLearning.cpp.obj
 0001:00000110       ??__EFloatInfinity@GlobalVectorConstants@@YAXXZ 0000000180001110 f   ECSLearning.cpp.obj
 0001:00000130       ??__EFloatMinus1_111@GlobalVectorConstants@@YAXXZ 0000000180001130 f   ECSLearning.cpp.obj
 0001:00000140       ??__EFloatMinusOne@GlobalVectorConstants@@YAXXZ 0000000180001140 f   ECSLearning.cpp.obj
 0001:00000150       ??__EFloatMinusOneHalf@GlobalVectorConstants@@YAXXZ 0000000180001150 f   ECSLearning.cpp.obj
 0001:00000160       ??__EFloatNeg127@GlobalVectorConstants@@YAXXZ 0000000180001160 f   ECSLearning.cpp.obj
 0001:00000170       ??__EFloatOne@GlobalVectorConstants@@YAXXZ 0000000180001170 f   ECSLearning.cpp.obj
 0001:00000180       ??__EFloatOneHalf@GlobalVectorConstants@@YAXXZ 0000000180001180 f   ECSLearning.cpp.obj
 0001:00000190       ??__EFloatOneHundredth@GlobalVectorConstants@@YAXXZ 0000000180001190 f   ECSLearning.cpp.obj
 0001:000001a0       ??__EFloatTwo@GlobalVectorConstants@@YAXXZ 00000001800011a0 f   ECSLearning.cpp.obj
 0001:000001b0       ??__EFloatZero@GlobalVectorConstants@@YAXXZ 00000001800011b0 f   ECSLearning.cpp.obj
 0001:000001c0       ??__EGFNameTableForDebuggerVisualizers_MT@@YAXXZ 00000001800011c0 f   ECSLearning.cpp.obj
 0001:000001e0       ??__EGObjectArrayForDebugVisualizers@@YAXXZ 00000001800011e0 f   ECSLearning.cpp.obj
 0001:000001f0       ??__EIntAllMask@GlobalVectorConstants@@YAXXZ 00000001800011f0 f   ECSLearning.cpp.obj
 0001:00000210       ??__EIntMinusOne@GlobalVectorConstants@@YAXXZ 0000000180001210 f   ECSLearning.cpp.obj
 0001:00000230       ??__EIntOne@GlobalVectorConstants@@YAXXZ 0000000180001230 f   ECSLearning.cpp.obj
 0001:00000250       ??__EIntSignBit@GlobalVectorConstants@@YAXXZ 0000000180001250 f   ECSLearning.cpp.obj
 0001:00000270       ??__EIntSignMask@GlobalVectorConstants@@YAXXZ 0000000180001270 f   ECSLearning.cpp.obj
 0001:00000290       ??__EIntZero@GlobalVectorConstants@@YAXXZ 0000000180001290 f   ECSLearning.cpp.obj
 0001:000002a0       ??__EKindaSmallNumber@GlobalVectorConstants@@YAXXZ 00000001800012a0 f   ECSLearning.cpp.obj
 0001:000002b0       ??__EOneOverPi@GlobalVectorConstants@@YAXXZ 00000001800012b0 f   ECSLearning.cpp.obj
 0001:000002c0       ??__EOneOverTwoPi@GlobalVectorConstants@@YAXXZ 00000001800012c0 f   ECSLearning.cpp.obj
 0001:000002d0       ??__EPi@GlobalVectorConstants@@YAXXZ 00000001800012d0 f   ECSLearning.cpp.obj
 0001:000002e0       ??__EPiByFour@GlobalVectorConstants@@YAXXZ 00000001800012e0 f   ECSLearning.cpp.obj
 0001:000002f0       ??__EPiByTwo@GlobalVectorConstants@@YAXXZ 00000001800012f0 f   ECSLearning.cpp.obj
 0001:00000300       ??__EQINV_SIGN_MASK@GlobalVectorConstants@@YAXXZ 0000000180001300 f   ECSLearning.cpp.obj
 0001:00000310       ??__EQMULTI_SIGN_MASK0@GlobalVectorConstants@@YAXXZ 0000000180001310 f   ECSLearning.cpp.obj
 0001:00000320       ??__EQMULTI_SIGN_MASK1@GlobalVectorConstants@@YAXXZ 0000000180001320 f   ECSLearning.cpp.obj
 0001:00000330       ??__EQMULTI_SIGN_MASK2@GlobalVectorConstants@@YAXXZ 0000000180001330 f   ECSLearning.cpp.obj
 0001:00000340       ??__ERAD_TO_DEG@GlobalVectorConstants@@YAXXZ 0000000180001340 f   ECSLearning.cpp.obj
 0001:00000350       ??__ERotationSignificantThreshold@GlobalVectorConstants@@YAXXZ 0000000180001350 f   ECSLearning.cpp.obj
 0001:00000360       ??__ESignBit@GlobalVectorConstants@@YAXXZ 0000000180001360 f   ECSLearning.cpp.obj
 0001:00000380       ??__ESignMask@GlobalVectorConstants@@YAXXZ 0000000180001380 f   ECSLearning.cpp.obj
 0001:000003a0       ??__ESmallLengthThreshold@GlobalVectorConstants@@YAXXZ 00000001800013a0 f   ECSLearning.cpp.obj
 0001:000003b0       ??__ESmallNumber@GlobalVectorConstants@@YAXXZ 00000001800013b0 f   ECSLearning.cpp.obj
 0001:000003c0       ??__EThreshQuatNormalized@GlobalVectorConstants@@YAXXZ 00000001800013c0 f   ECSLearning.cpp.obj
 0001:000003d0       ??__ETwoPi@GlobalVectorConstants@@YAXXZ 00000001800013d0 f   ECSLearning.cpp.obj
 0001:000003e0       ??__EXYZMask@GlobalVectorConstants@@YAXXZ 00000001800013e0 f   ECSLearning.cpp.obj
 0001:00000400       ??__EA@VectorSinConstantsSSE@@YAXXZ 0000000180001400 f   MyCharacter.cpp.obj
 0001:00000420       ??__EAllMask@GlobalVectorConstants@@YAXXZ 0000000180001420 f   MyCharacter.cpp.obj
 0001:00000440       ??__EAnimWeightThreshold@GlobalVectorConstants@@YAXXZ 0000000180001440 f   MyCharacter.cpp.obj
 0001:00000450       ??__EB@VectorSinConstantsSSE@@YAXXZ 0000000180001450 f   MyCharacter.cpp.obj
 0001:00000470       ??__EBigNumber@GlobalVectorConstants@@YAXXZ 0000000180001470 f   MyCharacter.cpp.obj
 0001:00000480       ??__EDEG_TO_RAD@GlobalVectorConstants@@YAXXZ 0000000180001480 f   MyCharacter.cpp.obj
 0001:00000490       ??__EDEG_TO_RAD_HALF@GlobalVectorConstants@@YAXXZ 0000000180001490 f   MyCharacter.cpp.obj
 0001:000004a0       ??__EFloat0001@GlobalVectorConstants@@YAXXZ 00000001800014a0 f   MyCharacter.cpp.obj
 0001:000004b0       ??__EFloat111_Minus1@GlobalVectorConstants@@YAXXZ 00000001800014b0 f   MyCharacter.cpp.obj
 0001:000004c0       ??__EFloat127@GlobalVectorConstants@@YAXXZ 00000001800014c0 f   MyCharacter.cpp.obj
 0001:000004d0       ??__EFloat180@GlobalVectorConstants@@YAXXZ 00000001800014d0 f   MyCharacter.cpp.obj
 0001:000004e0       ??__EFloat255@GlobalVectorConstants@@YAXXZ 00000001800014e0 f   MyCharacter.cpp.obj
 0001:000004f0       ??__EFloat360@GlobalVectorConstants@@YAXXZ 00000001800014f0 f   MyCharacter.cpp.obj
 0001:00000500       ??__EFloatAlmostTwo@GlobalVectorConstants@@YAXXZ 0000000180001500 f   MyCharacter.cpp.obj
 0001:00000510       ??__EFloatInfinity@GlobalVectorConstants@@YAXXZ 0000000180001510 f   MyCharacter.cpp.obj
 0001:00000530       ??__EFloatMinus1_111@GlobalVectorConstants@@YAXXZ 0000000180001530 f   MyCharacter.cpp.obj
 0001:00000540       ??__EFloatMinusOne@GlobalVectorConstants@@YAXXZ 0000000180001540 f   MyCharacter.cpp.obj
 0001:00000550       ??__EFloatMinusOneHalf@GlobalVectorConstants@@YAXXZ 0000000180001550 f   MyCharacter.cpp.obj
 0001:00000560       ??__EFloatNeg127@GlobalVectorConstants@@YAXXZ 0000000180001560 f   MyCharacter.cpp.obj
 0001:00000570       ??__EFloatOne@GlobalVectorConstants@@YAXXZ 0000000180001570 f   MyCharacter.cpp.obj
 0001:00000580       ??__EFloatOneHalf@GlobalVectorConstants@@YAXXZ 0000000180001580 f   MyCharacter.cpp.obj
 0001:00000590       ??__EFloatOneHundredth@GlobalVectorConstants@@YAXXZ 0000000180001590 f   MyCharacter.cpp.obj
 0001:000005a0       ??__EFloatTwo@GlobalVectorConstants@@YAXXZ 00000001800015a0 f   MyCharacter.cpp.obj
 0001:000005b0       ??__EFloatZero@GlobalVectorConstants@@YAXXZ 00000001800015b0 f   MyCharacter.cpp.obj
 0001:000005c0       ??__EIntAllMask@GlobalVectorConstants@@YAXXZ 00000001800015c0 f   MyCharacter.cpp.obj
 0001:000005e0       ??__EIntMinusOne@GlobalVectorConstants@@YAXXZ 00000001800015e0 f   MyCharacter.cpp.obj
 0001:00000600       ??__EIntOne@GlobalVectorConstants@@YAXXZ 0000000180001600 f   MyCharacter.cpp.obj
 0001:00000620       ??__EIntSignBit@GlobalVectorConstants@@YAXXZ 0000000180001620 f   MyCharacter.cpp.obj
 0001:00000640       ??__EIntSignMask@GlobalVectorConstants@@YAXXZ 0000000180001640 f   MyCharacter.cpp.obj
 0001:00000660       ??__EIntZero@GlobalVectorConstants@@YAXXZ 0000000180001660 f   MyCharacter.cpp.obj
 0001:00000670       ??__EInvalidBoundingBox@FNavigationSystem@@YAXXZ 0000000180001670 f   MyCharacter.cpp.obj
 0001:000006b0       ??__EKindaSmallNumber@GlobalVectorConstants@@YAXXZ 00000001800016b0 f   MyCharacter.cpp.obj
 0001:000006c0       ??__EOneOverPi@GlobalVectorConstants@@YAXXZ 00000001800016c0 f   MyCharacter.cpp.obj
 0001:000006d0       ??__EOneOverTwoPi@GlobalVectorConstants@@YAXXZ 00000001800016d0 f   MyCharacter.cpp.obj
 0001:000006e0       ??__EPi@GlobalVectorConstants@@YAXXZ 00000001800016e0 f   MyCharacter.cpp.obj
 0001:000006f0       ??__EPiByFour@GlobalVectorConstants@@YAXXZ 00000001800016f0 f   MyCharacter.cpp.obj
 0001:00000700       ??__EPiByTwo@GlobalVectorConstants@@YAXXZ 0000000180001700 f   MyCharacter.cpp.obj
 0001:00000710       ??__EQINV_SIGN_MASK@GlobalVectorConstants@@YAXXZ 0000000180001710 f   MyCharacter.cpp.obj
 0001:00000720       ??__EQMULTI_SIGN_MASK0@GlobalVectorConstants@@YAXXZ 0000000180001720 f   MyCharacter.cpp.obj
 0001:00000730       ??__EQMULTI_SIGN_MASK1@GlobalVectorConstants@@YAXXZ 0000000180001730 f   MyCharacter.cpp.obj
 0001:00000740       ??__EQMULTI_SIGN_MASK2@GlobalVectorConstants@@YAXXZ 0000000180001740 f   MyCharacter.cpp.obj
 0001:00000750       ??__ERAD_TO_DEG@GlobalVectorConstants@@YAXXZ 0000000180001750 f   MyCharacter.cpp.obj
 0001:00000760       ??__ERotationSignificantThreshold@GlobalVectorConstants@@YAXXZ 0000000180001760 f   MyCharacter.cpp.obj
 0001:00000770       ??__ESignBit@GlobalVectorConstants@@YAXXZ 0000000180001770 f   MyCharacter.cpp.obj
 0001:00000790       ??__ESignMask@GlobalVectorConstants@@YAXXZ 0000000180001790 f   MyCharacter.cpp.obj
 0001:000007b0       ??__ESmallLengthThreshold@GlobalVectorConstants@@YAXXZ 00000001800017b0 f   MyCharacter.cpp.obj
 0001:000007c0       ??__ESmallNumber@GlobalVectorConstants@@YAXXZ 00000001800017c0 f   MyCharacter.cpp.obj
 0001:000007d0       ??__EThreshQuatNormalized@GlobalVectorConstants@@YAXXZ 00000001800017d0 f   MyCharacter.cpp.obj
 0001:000007e0       ??__ETwoPi@GlobalVectorConstants@@YAXXZ 00000001800017e0 f   MyCharacter.cpp.obj
 0001:000007f0       ??__EXYZMask@GlobalVectorConstants@@YAXXZ 00000001800017f0 f   MyCharacter.cpp.obj
 0001:00000810       ??__EA@VectorSinConstantsSSE@@YAXXZ 0000000180001810 f   ECSLearning.init.gen.cpp.obj
 0001:00000830       ??__EAllMask@GlobalVectorConstants@@YAXXZ 0000000180001830 f   ECSLearning.init.gen.cpp.obj
 0001:00000850       ??__EAnimWeightThreshold@GlobalVectorConstants@@YAXXZ 0000000180001850 f   ECSLearning.init.gen.cpp.obj
 0001:00000860       ??__EB@VectorSinConstantsSSE@@YAXXZ 0000000180001860 f   ECSLearning.init.gen.cpp.obj
 0001:00000880       ??__EBigNumber@GlobalVectorConstants@@YAXXZ 0000000180001880 f   ECSLearning.init.gen.cpp.obj
 0001:00000890       ??__EDEG_TO_RAD@GlobalVectorConstants@@YAXXZ 0000000180001890 f   ECSLearning.init.gen.cpp.obj
 0001:000008a0       ??__EDEG_TO_RAD_HALF@GlobalVectorConstants@@YAXXZ 00000001800018a0 f   ECSLearning.init.gen.cpp.obj
 0001:000008b0       ??__EFloat0001@GlobalVectorConstants@@YAXXZ 00000001800018b0 f   ECSLearning.init.gen.cpp.obj
 0001:000008c0       ??__EFloat111_Minus1@GlobalVectorConstants@@YAXXZ 00000001800018c0 f   ECSLearning.init.gen.cpp.obj
 0001:000008d0       ??__EFloat127@GlobalVectorConstants@@YAXXZ 00000001800018d0 f   ECSLearning.init.gen.cpp.obj
 0001:000008e0       ??__EFloat180@GlobalVectorConstants@@YAXXZ 00000001800018e0 f   ECSLearning.init.gen.cpp.obj
 0001:000008f0       ??__EFloat255@GlobalVectorConstants@@YAXXZ 00000001800018f0 f   ECSLearning.init.gen.cpp.obj
 0001:00000900       ??__EFloat360@GlobalVectorConstants@@YAXXZ 0000000180001900 f   ECSLearning.init.gen.cpp.obj
 0001:00000910       ??__EFloatAlmostTwo@GlobalVectorConstants@@YAXXZ 0000000180001910 f   ECSLearning.init.gen.cpp.obj
 0001:00000920       ??__EFloatInfinity@GlobalVectorConstants@@YAXXZ 0000000180001920 f   ECSLearning.init.gen.cpp.obj
 0001:00000940       ??__EFloatMinus1_111@GlobalVectorConstants@@YAXXZ 0000000180001940 f   ECSLearning.init.gen.cpp.obj
 0001:00000950       ??__EFloatMinusOne@GlobalVectorConstants@@YAXXZ 0000000180001950 f   ECSLearning.init.gen.cpp.obj
 0001:00000960       ??__EFloatMinusOneHalf@GlobalVectorConstants@@YAXXZ 0000000180001960 f   ECSLearning.init.gen.cpp.obj
 0001:00000970       ??__EFloatNeg127@GlobalVectorConstants@@YAXXZ 0000000180001970 f   ECSLearning.init.gen.cpp.obj
 0001:00000980       ??__EFloatOne@GlobalVectorConstants@@YAXXZ 0000000180001980 f   ECSLearning.init.gen.cpp.obj
 0001:00000990       ??__EFloatOneHalf@GlobalVectorConstants@@YAXXZ 0000000180001990 f   ECSLearning.init.gen.cpp.obj
 0001:000009a0       ??__EFloatOneHundredth@GlobalVectorConstants@@YAXXZ 00000001800019a0 f   ECSLearning.init.gen.cpp.obj
 0001:000009b0       ??__EFloatTwo@GlobalVectorConstants@@YAXXZ 00000001800019b0 f   ECSLearning.init.gen.cpp.obj
 0001:000009c0       ??__EFloatZero@GlobalVectorConstants@@YAXXZ 00000001800019c0 f   ECSLearning.init.gen.cpp.obj
 0001:000009d0       ??__EIntAllMask@GlobalVectorConstants@@YAXXZ 00000001800019d0 f   ECSLearning.init.gen.cpp.obj
 0001:000009f0       ??__EIntMinusOne@GlobalVectorConstants@@YAXXZ 00000001800019f0 f   ECSLearning.init.gen.cpp.obj
 0001:00000a10       ??__EIntOne@GlobalVectorConstants@@YAXXZ 0000000180001a10 f   ECSLearning.init.gen.cpp.obj
 0001:00000a30       ??__EIntSignBit@GlobalVectorConstants@@YAXXZ 0000000180001a30 f   ECSLearning.init.gen.cpp.obj
 0001:00000a50       ??__EIntSignMask@GlobalVectorConstants@@YAXXZ 0000000180001a50 f   ECSLearning.init.gen.cpp.obj
 0001:00000a70       ??__EIntZero@GlobalVectorConstants@@YAXXZ 0000000180001a70 f   ECSLearning.init.gen.cpp.obj
 0001:00000a80       ??__EKindaSmallNumber@GlobalVectorConstants@@YAXXZ 0000000180001a80 f   ECSLearning.init.gen.cpp.obj
 0001:00000a90       ??__EOneOverPi@GlobalVectorConstants@@YAXXZ 0000000180001a90 f   ECSLearning.init.gen.cpp.obj
 0001:00000aa0       ??__EOneOverTwoPi@GlobalVectorConstants@@YAXXZ 0000000180001aa0 f   ECSLearning.init.gen.cpp.obj
 0001:00000ab0       ??__EPi@GlobalVectorConstants@@YAXXZ 0000000180001ab0 f   ECSLearning.init.gen.cpp.obj
 0001:00000ac0       ??__EPiByFour@GlobalVectorConstants@@YAXXZ 0000000180001ac0 f   ECSLearning.init.gen.cpp.obj
 0001:00000ad0       ??__EPiByTwo@GlobalVectorConstants@@YAXXZ 0000000180001ad0 f   ECSLearning.init.gen.cpp.obj
 0001:00000ae0       ??__EQINV_SIGN_MASK@GlobalVectorConstants@@YAXXZ 0000000180001ae0 f   ECSLearning.init.gen.cpp.obj
 0001:00000af0       ??__EQMULTI_SIGN_MASK0@GlobalVectorConstants@@YAXXZ 0000000180001af0 f   ECSLearning.init.gen.cpp.obj
 0001:00000b00       ??__EQMULTI_SIGN_MASK1@GlobalVectorConstants@@YAXXZ 0000000180001b00 f   ECSLearning.init.gen.cpp.obj
 0001:00000b10       ??__EQMULTI_SIGN_MASK2@GlobalVectorConstants@@YAXXZ 0000000180001b10 f   ECSLearning.init.gen.cpp.obj
 0001:00000b20       ??__ERAD_TO_DEG@GlobalVectorConstants@@YAXXZ 0000000180001b20 f   ECSLearning.init.gen.cpp.obj
 0001:00000b30       ??__ERotationSignificantThreshold@GlobalVectorConstants@@YAXXZ 0000000180001b30 f   ECSLearning.init.gen.cpp.obj
 0001:00000b40       ??__ESignBit@GlobalVectorConstants@@YAXXZ 0000000180001b40 f   ECSLearning.init.gen.cpp.obj
 0001:00000b60       ??__ESignMask@GlobalVectorConstants@@YAXXZ 0000000180001b60 f   ECSLearning.init.gen.cpp.obj
 0001:00000b80       ??__ESmallLengthThreshold@GlobalVectorConstants@@YAXXZ 0000000180001b80 f   ECSLearning.init.gen.cpp.obj
 0001:00000b90       ??__ESmallNumber@GlobalVectorConstants@@YAXXZ 0000000180001b90 f   ECSLearning.init.gen.cpp.obj
 0001:00000ba0       ??__EThreshQuatNormalized@GlobalVectorConstants@@YAXXZ 0000000180001ba0 f   ECSLearning.init.gen.cpp.obj
 0001:00000bb0       ??__ETwoPi@GlobalVectorConstants@@YAXXZ 0000000180001bb0 f   ECSLearning.init.gen.cpp.obj
 0001:00000bc0       ??__EXYZMask@GlobalVectorConstants@@YAXXZ 0000000180001bc0 f   ECSLearning.init.gen.cpp.obj
 0001:00000be0       ??__E?DependentSingletons@Z_Construct_UClass_AMyCharacter_Statics@@2QBQ6APEAVUObject@@XZB@@YAXXZ 0000000180001be0 f   MyCharacter.gen.cpp.obj
 0001:00000bf0       ??__EA@VectorSinConstantsSSE@@YAXXZ 0000000180001bf0 f   MyCharacter.gen.cpp.obj
 0001:00000c10       ??__EAllMask@GlobalVectorConstants@@YAXXZ 0000000180001c10 f   MyCharacter.gen.cpp.obj
 0001:00000c30       ??__EAnimWeightThreshold@GlobalVectorConstants@@YAXXZ 0000000180001c30 f   MyCharacter.gen.cpp.obj
 0001:00000c40       ??__EAutoInitializeAMyCharacter@@YAXXZ 0000000180001c40 f   MyCharacter.gen.cpp.obj
 0001:00000c70       ??__EB@VectorSinConstantsSSE@@YAXXZ 0000000180001c70 f   MyCharacter.gen.cpp.obj
 0001:00000c90       ??__EBigNumber@GlobalVectorConstants@@YAXXZ 0000000180001c90 f   MyCharacter.gen.cpp.obj
 0001:00000ca0       ??__EDEG_TO_RAD@GlobalVectorConstants@@YAXXZ 0000000180001ca0 f   MyCharacter.gen.cpp.obj
 0001:00000cb0       ??__EDEG_TO_RAD_HALF@GlobalVectorConstants@@YAXXZ 0000000180001cb0 f   MyCharacter.gen.cpp.obj
 0001:00000cc0       ??__EFloat0001@GlobalVectorConstants@@YAXXZ 0000000180001cc0 f   MyCharacter.gen.cpp.obj
 0001:00000cd0       ??__EFloat111_Minus1@GlobalVectorConstants@@YAXXZ 0000000180001cd0 f   MyCharacter.gen.cpp.obj
 0001:00000ce0       ??__EFloat127@GlobalVectorConstants@@YAXXZ 0000000180001ce0 f   MyCharacter.gen.cpp.obj
 0001:00000cf0       ??__EFloat180@GlobalVectorConstants@@YAXXZ 0000000180001cf0 f   MyCharacter.gen.cpp.obj
 0001:00000d00       ??__EFloat255@GlobalVectorConstants@@YAXXZ 0000000180001d00 f   MyCharacter.gen.cpp.obj
 0001:00000d10       ??__EFloat360@GlobalVectorConstants@@YAXXZ 0000000180001d10 f   MyCharacter.gen.cpp.obj
 0001:00000d20       ??__EFloatAlmostTwo@GlobalVectorConstants@@YAXXZ 0000000180001d20 f   MyCharacter.gen.cpp.obj
 0001:00000d30       ??__EFloatInfinity@GlobalVectorConstants@@YAXXZ 0000000180001d30 f   MyCharacter.gen.cpp.obj
 0001:00000d50       ??__EFloatMinus1_111@GlobalVectorConstants@@YAXXZ 0000000180001d50 f   MyCharacter.gen.cpp.obj
 0001:00000d60       ??__EFloatMinusOne@GlobalVectorConstants@@YAXXZ 0000000180001d60 f   MyCharacter.gen.cpp.obj
 0001:00000d70       ??__EFloatMinusOneHalf@GlobalVectorConstants@@YAXXZ 0000000180001d70 f   MyCharacter.gen.cpp.obj
 0001:00000d80       ??__EFloatNeg127@GlobalVectorConstants@@YAXXZ 0000000180001d80 f   MyCharacter.gen.cpp.obj
 0001:00000d90       ??__EFloatOne@GlobalVectorConstants@@YAXXZ 0000000180001d90 f   MyCharacter.gen.cpp.obj
 0001:00000da0       ??__EFloatOneHalf@GlobalVectorConstants@@YAXXZ 0000000180001da0 f   MyCharacter.gen.cpp.obj
 0001:00000db0       ??__EFloatOneHundredth@GlobalVectorConstants@@YAXXZ 0000000180001db0 f   MyCharacter.gen.cpp.obj
 0001:00000dc0       ??__EFloatTwo@GlobalVectorConstants@@YAXXZ 0000000180001dc0 f   MyCharacter.gen.cpp.obj
 0001:00000dd0       ??__EFloatZero@GlobalVectorConstants@@YAXXZ 0000000180001dd0 f   MyCharacter.gen.cpp.obj
 0001:00000de0       ??__EIntAllMask@GlobalVectorConstants@@YAXXZ 0000000180001de0 f   MyCharacter.gen.cpp.obj
 0001:00000e00       ??__EIntMinusOne@GlobalVectorConstants@@YAXXZ 0000000180001e00 f   MyCharacter.gen.cpp.obj
 0001:00000e20       ??__EIntOne@GlobalVectorConstants@@YAXXZ 0000000180001e20 f   MyCharacter.gen.cpp.obj
 0001:00000e40       ??__EIntSignBit@GlobalVectorConstants@@YAXXZ 0000000180001e40 f   MyCharacter.gen.cpp.obj
 0001:00000e60       ??__EIntSignMask@GlobalVectorConstants@@YAXXZ 0000000180001e60 f   MyCharacter.gen.cpp.obj
 0001:00000e80       ??__EIntZero@GlobalVectorConstants@@YAXXZ 0000000180001e80 f   MyCharacter.gen.cpp.obj
 0001:00000e90       ??__EInvalidBoundingBox@FNavigationSystem@@YAXXZ 0000000180001e90 f   MyCharacter.gen.cpp.obj
 0001:00000ed0       ??__EKindaSmallNumber@GlobalVectorConstants@@YAXXZ 0000000180001ed0 f   MyCharacter.gen.cpp.obj
 0001:00000ee0       ??__EOneOverPi@GlobalVectorConstants@@YAXXZ 0000000180001ee0 f   MyCharacter.gen.cpp.obj
 0001:00000ef0       ??__EOneOverTwoPi@GlobalVectorConstants@@YAXXZ 0000000180001ef0 f   MyCharacter.gen.cpp.obj
 0001:00000f00       ??__EPi@GlobalVectorConstants@@YAXXZ 0000000180001f00 f   MyCharacter.gen.cpp.obj
 0001:00000f10       ??__EPiByFour@GlobalVectorConstants@@YAXXZ 0000000180001f10 f   MyCharacter.gen.cpp.obj
 0001:00000f20       ??__EPiByTwo@GlobalVectorConstants@@YAXXZ 0000000180001f20 f   MyCharacter.gen.cpp.obj
 0001:00000f30       ??__EQINV_SIGN_MASK@GlobalVectorConstants@@YAXXZ 0000000180001f30 f   MyCharacter.gen.cpp.obj
 0001:00000f40       ??__EQMULTI_SIGN_MASK0@GlobalVectorConstants@@YAXXZ 0000000180001f40 f   MyCharacter.gen.cpp.obj
 0001:00000f50       ??__EQMULTI_SIGN_MASK1@GlobalVectorConstants@@YAXXZ 0000000180001f50 f   MyCharacter.gen.cpp.obj
 0001:00000f60       ??__EQMULTI_SIGN_MASK2@GlobalVectorConstants@@YAXXZ 0000000180001f60 f   MyCharacter.gen.cpp.obj
 0001:00000f70       ??__ERAD_TO_DEG@GlobalVectorConstants@@YAXXZ 0000000180001f70 f   MyCharacter.gen.cpp.obj
 0001:00000f80       ??__ERotationSignificantThreshold@GlobalVectorConstants@@YAXXZ 0000000180001f80 f   MyCharacter.gen.cpp.obj
 0001:00000f90       ??__ESignBit@GlobalVectorConstants@@YAXXZ 0000000180001f90 f   MyCharacter.gen.cpp.obj
 0001:00000fb0       ??__ESignMask@GlobalVectorConstants@@YAXXZ 0000000180001fb0 f   MyCharacter.gen.cpp.obj
 0001:00000fd0       ??__ESmallLengthThreshold@GlobalVectorConstants@@YAXXZ 0000000180001fd0 f   MyCharacter.gen.cpp.obj
 0001:00000fe0       ??__ESmallNumber@GlobalVectorConstants@@YAXXZ 0000000180001fe0 f   MyCharacter.gen.cpp.obj
 0001:00000ff0       ??__EThreshQuatNormalized@GlobalVectorConstants@@YAXXZ 0000000180001ff0 f   MyCharacter.gen.cpp.obj
 0001:00001000       ??__ETwoPi@GlobalVectorConstants@@YAXXZ 0000000180002000 f   MyCharacter.gen.cpp.obj
 0001:00001010       ??__EXYZMask@GlobalVectorConstants@@YAXXZ 0000000180002010 f   MyCharacter.gen.cpp.obj
 0001:00001030       ??__EZ_CompiledInDefer_UClass_AMyCharacter@@YAXXZ 0000000180002030 f   MyCharacter.gen.cpp.obj
 0001:000020d0       ?initialize_legacy_wide_specifiers@@YAHXZ 00000001800030d0 f   legacy_stdio_wide_specifiers:legacy_stdio_wide_specifiers.obj
 0001:00002174       ?ArrayUnwindFilter@@YAHPEAU_EXCEPTION_POINTERS@@@Z 0000000180003174 f   MSVCRT:ehvecdtr.obj
 0001:000021f4       ?dllmain_crt_dispatch@@YAHQEAUHINSTANCE__@@KQEAX@Z 00000001800031f4 f   MSVCRT:dll_dllmain.obj
 0001:00002244       ?dllmain_crt_process_attach@@YAHQEAUHINSTANCE__@@QEAX@Z 0000000180003244 f   MSVCRT:dll_dllmain.obj
 0001:00002360       ?dllmain_crt_process_detach@@YAH_N@Z 0000000180003360 f   MSVCRT:dll_dllmain.obj
 0001:000023f0       ?dllmain_dispatch@@YAHQEAUHINSTANCE__@@KQEAX@Z 00000001800033f0 f   MSVCRT:dll_dllmain.obj
 0001:00002524       ?dllmain_raw@@YAHQEAUHINSTANCE__@@KQEAX@Z 0000000180003524 f   MSVCRT:dll_dllmain.obj
 0001:000025b0       __get_entropy              00000001800035b0 f   MSVCRT:gs_support.obj
 0001:0000277c       ?find_pe_section@@YAPEAU_IMAGE_SECTION_HEADER@@QEAE_K@Z 000000018000377c f   MSVCRT:utility.obj
 0001:000027d0       ?is_potentially_valid_image_base@@YA_NQEAX@Z 00000001800037d0 f   MSVCRT:utility.obj
 0001:000031b0       $$000000                   00000001800041b0     MSVCRT:_guard_dispatch_.obj
 0001:000031d0       ?dtor$0@?0??Register@?$TClassCompiledInDefer@VAMyCharacter@@@@UEBAPEAVUClass@@XZ@4HA 00000001800041d0 f   MyCharacter.gen.cpp.obj
 0001:000031de       ?fin$0@?0???_M@YAXPEAX_K1P6AX0@Z@Z@4HA 00000001800041de f   MSVCRT:ehvecdtr.obj
 0001:0000320a       ?filt$0@?0??__ArrayUnwind@@YAXPEAX_K1P6AX0@Z@Z@4HA 000000018000420a f   MSVCRT:ehvecdtr.obj
 0001:0000324b       ?fin$0@?0??dllmain_crt_process_attach@@YAHQEAUHINSTANCE__@@QEAX@Z@4HA 000000018000424b f   MSVCRT:dll_dllmain.obj
 0001:00003262       ?fin$0@?0??dllmain_crt_process_detach@@YAH_N@Z@4HA 0000000180004262 f   MSVCRT:dll_dllmain.obj
 0001:0000327e       ?filt$0@?0??dllmain_dispatch@@YAHQEAUHINSTANCE__@@KQEAX@Z@4HA 000000018000427e f   MSVCRT:dll_dllmain.obj
 0001:000032b4       __scrt_is_nonwritable_in_current_image$filt$0 00000001800042b4 f   MSVCRT:utility.obj
 0002:00000be0       ?FloatOne$initializer$@GlobalVectorConstants@@3P6AXXZEA 0000000180005be0     ECSLearning.cpp.obj
 0002:00000be8       ?FloatZero$initializer$@GlobalVectorConstants@@3P6AXXZEA 0000000180005be8     ECSLearning.cpp.obj
 0002:00000bf0       ?FloatMinusOne$initializer$@GlobalVectorConstants@@3P6AXXZEA 0000000180005bf0     ECSLearning.cpp.obj
 0002:00000bf8       ?Float0001$initializer$@GlobalVectorConstants@@3P6AXXZEA 0000000180005bf8     ECSLearning.cpp.obj
 0002:00000c00       ?SmallLengthThreshold$initializer$@GlobalVectorConstants@@3P6AXXZEA 0000000180005c00     ECSLearning.cpp.obj
 0002:00000c08       ?FloatOneHundredth$initializer$@GlobalVectorConstants@@3P6AXXZEA 0000000180005c08     ECSLearning.cpp.obj
 0002:00000c10       ?Float111_Minus1$initializer$@GlobalVectorConstants@@3P6AXXZEA 0000000180005c10     ECSLearning.cpp.obj
 0002:00000c18       ?FloatMinus1_111$initializer$@GlobalVectorConstants@@3P6AXXZEA 0000000180005c18     ECSLearning.cpp.obj
 0002:00000c20       ?FloatOneHalf$initializer$@GlobalVectorConstants@@3P6AXXZEA 0000000180005c20     ECSLearning.cpp.obj
 0002:00000c28       ?FloatMinusOneHalf$initializer$@GlobalVectorConstants@@3P6AXXZEA 0000000180005c28     ECSLearning.cpp.obj
 0002:00000c30       ?KindaSmallNumber$initializer$@GlobalVectorConstants@@3P6AXXZEA 0000000180005c30     ECSLearning.cpp.obj
 0002:00000c38       ?SmallNumber$initializer$@GlobalVectorConstants@@3P6AXXZEA 0000000180005c38     ECSLearning.cpp.obj
 0002:00000c40       ?ThreshQuatNormalized$initializer$@GlobalVectorConstants@@3P6AXXZEA 0000000180005c40     ECSLearning.cpp.obj
 0002:00000c48       ?BigNumber$initializer$@GlobalVectorConstants@@3P6AXXZEA 0000000180005c48     ECSLearning.cpp.obj
 0002:00000c50       ?IntOne$initializer$@GlobalVectorConstants@@3P6AXXZEA 0000000180005c50     ECSLearning.cpp.obj
 0002:00000c58       ?IntZero$initializer$@GlobalVectorConstants@@3P6AXXZEA 0000000180005c58     ECSLearning.cpp.obj
 0002:00000c60       ?IntMinusOne$initializer$@GlobalVectorConstants@@3P6AXXZEA 0000000180005c60     ECSLearning.cpp.obj
 0002:00000c68       ?QINV_SIGN_MASK$initializer$@GlobalVectorConstants@@3P6AXXZEA 0000000180005c68     ECSLearning.cpp.obj
 0002:00000c70       ?QMULTI_SIGN_MASK0$initializer$@GlobalVectorConstants@@3P6AXXZEA 0000000180005c70     ECSLearning.cpp.obj
 0002:00000c78       ?QMULTI_SIGN_MASK1$initializer$@GlobalVectorConstants@@3P6AXXZEA 0000000180005c78     ECSLearning.cpp.obj
 0002:00000c80       ?QMULTI_SIGN_MASK2$initializer$@GlobalVectorConstants@@3P6AXXZEA 0000000180005c80     ECSLearning.cpp.obj
 0002:00000c88       ?DEG_TO_RAD$initializer$@GlobalVectorConstants@@3P6AXXZEA 0000000180005c88     ECSLearning.cpp.obj
 0002:00000c90       ?DEG_TO_RAD_HALF$initializer$@GlobalVectorConstants@@3P6AXXZEA 0000000180005c90     ECSLearning.cpp.obj
 0002:00000c98       ?RAD_TO_DEG$initializer$@GlobalVectorConstants@@3P6AXXZEA 0000000180005c98     ECSLearning.cpp.obj
 0002:00000ca0       ?XYZMask$initializer$@GlobalVectorConstants@@3P6AXXZEA 0000000180005ca0     ECSLearning.cpp.obj
 0002:00000ca8       ?SignBit$initializer$@GlobalVectorConstants@@3P6AXXZEA 0000000180005ca8     ECSLearning.cpp.obj
 0002:00000cb0       ?SignMask$initializer$@GlobalVectorConstants@@3P6AXXZEA 0000000180005cb0     ECSLearning.cpp.obj
 0002:00000cb8       ?IntSignBit$initializer$@GlobalVectorConstants@@3P6AXXZEA 0000000180005cb8     ECSLearning.cpp.obj
 0002:00000cc0       ?IntSignMask$initializer$@GlobalVectorConstants@@3P6AXXZEA 0000000180005cc0     ECSLearning.cpp.obj
 0002:00000cc8       ?AllMask$initializer$@GlobalVectorConstants@@3P6AXXZEA 0000000180005cc8     ECSLearning.cpp.obj
 0002:00000cd0       ?IntAllMask$initializer$@GlobalVectorConstants@@3P6AXXZEA 0000000180005cd0     ECSLearning.cpp.obj
 0002:00000cd8       ?FloatInfinity$initializer$@GlobalVectorConstants@@3P6AXXZEA 0000000180005cd8     ECSLearning.cpp.obj
 0002:00000ce0       ?Pi$initializer$@GlobalVectorConstants@@3P6AXXZEA 0000000180005ce0     ECSLearning.cpp.obj
 0002:00000ce8       ?TwoPi$initializer$@GlobalVectorConstants@@3P6AXXZEA 0000000180005ce8     ECSLearning.cpp.obj
 0002:00000cf0       ?PiByTwo$initializer$@GlobalVectorConstants@@3P6AXXZEA 0000000180005cf0     ECSLearning.cpp.obj
 0002:00000cf8       ?PiByFour$initializer$@GlobalVectorConstants@@3P6AXXZEA 0000000180005cf8     ECSLearning.cpp.obj
 0002:00000d00       ?OneOverPi$initializer$@GlobalVectorConstants@@3P6AXXZEA 0000000180005d00     ECSLearning.cpp.obj
 0002:00000d08       ?OneOverTwoPi$initializer$@GlobalVectorConstants@@3P6AXXZEA 0000000180005d08     ECSLearning.cpp.obj
 0002:00000d10       ?Float255$initializer$@GlobalVectorConstants@@3P6AXXZEA 0000000180005d10     ECSLearning.cpp.obj
 0002:00000d18       ?Float127$initializer$@GlobalVectorConstants@@3P6AXXZEA 0000000180005d18     ECSLearning.cpp.obj
 0002:00000d20       ?FloatNeg127$initializer$@GlobalVectorConstants@@3P6AXXZEA 0000000180005d20     ECSLearning.cpp.obj
 0002:00000d28       ?Float360$initializer$@GlobalVectorConstants@@3P6AXXZEA 0000000180005d28     ECSLearning.cpp.obj
 0002:00000d30       ?Float180$initializer$@GlobalVectorConstants@@3P6AXXZEA 0000000180005d30     ECSLearning.cpp.obj
 0002:00000d38       ?FloatTwo$initializer$@GlobalVectorConstants@@3P6AXXZEA 0000000180005d38     ECSLearning.cpp.obj
 0002:00000d40       ?FloatAlmostTwo$initializer$@GlobalVectorConstants@@3P6AXXZEA 0000000180005d40     ECSLearning.cpp.obj
 0002:00000d48       ?A$initializer$@VectorSinConstantsSSE@@3P6AXXZEA 0000000180005d48     ECSLearning.cpp.obj
 0002:00000d50       ?B$initializer$@VectorSinConstantsSSE@@3P6AXXZEA 0000000180005d50     ECSLearning.cpp.obj
 0002:00000d58       ?AnimWeightThreshold$initializer$@GlobalVectorConstants@@3P6AXXZEA 0000000180005d58     ECSLearning.cpp.obj
 0002:00000d60       ?RotationSignificantThreshold$initializer$@GlobalVectorConstants@@3P6AXXZEA 0000000180005d60     ECSLearning.cpp.obj
 0002:00000d68       ?GFNameTableForDebuggerVisualizers_MT$initializer$@@3P6AXXZEA 0000000180005d68     ECSLearning.cpp.obj
 0002:00000d70       ?GObjectArrayForDebugVisualizers$initializer$@@3P6AXXZEA 0000000180005d70     ECSLearning.cpp.obj
 0002:00000d78       ?FloatOne$initializer$@GlobalVectorConstants@@3P6AXXZEA 0000000180005d78     MyCharacter.cpp.obj
 0002:00000d80       ?FloatZero$initializer$@GlobalVectorConstants@@3P6AXXZEA 0000000180005d80     MyCharacter.cpp.obj
 0002:00000d88       ?FloatMinusOne$initializer$@GlobalVectorConstants@@3P6AXXZEA 0000000180005d88     MyCharacter.cpp.obj
 0002:00000d90       ?Float0001$initializer$@GlobalVectorConstants@@3P6AXXZEA 0000000180005d90     MyCharacter.cpp.obj
 0002:00000d98       ?SmallLengthThreshold$initializer$@GlobalVectorConstants@@3P6AXXZEA 0000000180005d98     MyCharacter.cpp.obj
 0002:00000da0       ?FloatOneHundredth$initializer$@GlobalVectorConstants@@3P6AXXZEA 0000000180005da0     MyCharacter.cpp.obj
 0002:00000da8       ?Float111_Minus1$initializer$@GlobalVectorConstants@@3P6AXXZEA 0000000180005da8     MyCharacter.cpp.obj
 0002:00000db0       ?FloatMinus1_111$initializer$@GlobalVectorConstants@@3P6AXXZEA 0000000180005db0     MyCharacter.cpp.obj
 0002:00000db8       ?FloatOneHalf$initializer$@GlobalVectorConstants@@3P6AXXZEA 0000000180005db8     MyCharacter.cpp.obj
 0002:00000dc0       ?FloatMinusOneHalf$initializer$@GlobalVectorConstants@@3P6AXXZEA 0000000180005dc0     MyCharacter.cpp.obj
 0002:00000dc8       ?KindaSmallNumber$initializer$@GlobalVectorConstants@@3P6AXXZEA 0000000180005dc8     MyCharacter.cpp.obj
 0002:00000dd0       ?SmallNumber$initializer$@GlobalVectorConstants@@3P6AXXZEA 0000000180005dd0     MyCharacter.cpp.obj
 0002:00000dd8       ?ThreshQuatNormalized$initializer$@GlobalVectorConstants@@3P6AXXZEA 0000000180005dd8     MyCharacter.cpp.obj
 0002:00000de0       ?BigNumber$initializer$@GlobalVectorConstants@@3P6AXXZEA 0000000180005de0     MyCharacter.cpp.obj
 0002:00000de8       ?IntOne$initializer$@GlobalVectorConstants@@3P6AXXZEA 0000000180005de8     MyCharacter.cpp.obj
 0002:00000df0       ?IntZero$initializer$@GlobalVectorConstants@@3P6AXXZEA 0000000180005df0     MyCharacter.cpp.obj
 0002:00000df8       ?IntMinusOne$initializer$@GlobalVectorConstants@@3P6AXXZEA 0000000180005df8     MyCharacter.cpp.obj
 0002:00000e00       ?QINV_SIGN_MASK$initializer$@GlobalVectorConstants@@3P6AXXZEA 0000000180005e00     MyCharacter.cpp.obj
 0002:00000e08       ?QMULTI_SIGN_MASK0$initializer$@GlobalVectorConstants@@3P6AXXZEA 0000000180005e08     MyCharacter.cpp.obj
 0002:00000e10       ?QMULTI_SIGN_MASK1$initializer$@GlobalVectorConstants@@3P6AXXZEA 0000000180005e10     MyCharacter.cpp.obj
 0002:00000e18       ?QMULTI_SIGN_MASK2$initializer$@GlobalVectorConstants@@3P6AXXZEA 0000000180005e18     MyCharacter.cpp.obj
 0002:00000e20       ?DEG_TO_RAD$initializer$@GlobalVectorConstants@@3P6AXXZEA 0000000180005e20     MyCharacter.cpp.obj
 0002:00000e28       ?DEG_TO_RAD_HALF$initializer$@GlobalVectorConstants@@3P6AXXZEA 0000000180005e28     MyCharacter.cpp.obj
 0002:00000e30       ?RAD_TO_DEG$initializer$@GlobalVectorConstants@@3P6AXXZEA 0000000180005e30     MyCharacter.cpp.obj
 0002:00000e38       ?XYZMask$initializer$@GlobalVectorConstants@@3P6AXXZEA 0000000180005e38     MyCharacter.cpp.obj
 0002:00000e40       ?SignBit$initializer$@GlobalVectorConstants@@3P6AXXZEA 0000000180005e40     MyCharacter.cpp.obj
 0002:00000e48       ?SignMask$initializer$@GlobalVectorConstants@@3P6AXXZEA 0000000180005e48     MyCharacter.cpp.obj
 0002:00000e50       ?IntSignBit$initializer$@GlobalVectorConstants@@3P6AXXZEA 0000000180005e50     MyCharacter.cpp.obj
 0002:00000e58       ?IntSignMask$initializer$@GlobalVectorConstants@@3P6AXXZEA 0000000180005e58     MyCharacter.cpp.obj
 0002:00000e60       ?AllMask$initializer$@GlobalVectorConstants@@3P6AXXZEA 0000000180005e60     MyCharacter.cpp.obj
 0002:00000e68       ?IntAllMask$initializer$@GlobalVectorConstants@@3P6AXXZEA 0000000180005e68     MyCharacter.cpp.obj
 0002:00000e70       ?FloatInfinity$initializer$@GlobalVectorConstants@@3P6AXXZEA 0000000180005e70     MyCharacter.cpp.obj
 0002:00000e78       ?Pi$initializer$@GlobalVectorConstants@@3P6AXXZEA 0000000180005e78     MyCharacter.cpp.obj
 0002:00000e80       ?TwoPi$initializer$@GlobalVectorConstants@@3P6AXXZEA 0000000180005e80     MyCharacter.cpp.obj
 0002:00000e88       ?PiByTwo$initializer$@GlobalVectorConstants@@3P6AXXZEA 0000000180005e88     MyCharacter.cpp.obj
 0002:00000e90       ?PiByFour$initializer$@GlobalVectorConstants@@3P6AXXZEA 0000000180005e90     MyCharacter.cpp.obj
 0002:00000e98       ?OneOverPi$initializer$@GlobalVectorConstants@@3P6AXXZEA 0000000180005e98     MyCharacter.cpp.obj
 0002:00000ea0       ?OneOverTwoPi$initializer$@GlobalVectorConstants@@3P6AXXZEA 0000000180005ea0     MyCharacter.cpp.obj
 0002:00000ea8       ?Float255$initializer$@GlobalVectorConstants@@3P6AXXZEA 0000000180005ea8     MyCharacter.cpp.obj
 0002:00000eb0       ?Float127$initializer$@GlobalVectorConstants@@3P6AXXZEA 0000000180005eb0     MyCharacter.cpp.obj
 0002:00000eb8       ?FloatNeg127$initializer$@GlobalVectorConstants@@3P6AXXZEA 0000000180005eb8     MyCharacter.cpp.obj
 0002:00000ec0       ?Float360$initializer$@GlobalVectorConstants@@3P6AXXZEA 0000000180005ec0     MyCharacter.cpp.obj
 0002:00000ec8       ?Float180$initializer$@GlobalVectorConstants@@3P6AXXZEA 0000000180005ec8     MyCharacter.cpp.obj
 0002:00000ed0       ?FloatTwo$initializer$@GlobalVectorConstants@@3P6AXXZEA 0000000180005ed0     MyCharacter.cpp.obj
 0002:00000ed8       ?FloatAlmostTwo$initializer$@GlobalVectorConstants@@3P6AXXZEA 0000000180005ed8     MyCharacter.cpp.obj
 0002:00000ee0       ?A$initializer$@VectorSinConstantsSSE@@3P6AXXZEA 0000000180005ee0     MyCharacter.cpp.obj
 0002:00000ee8       ?B$initializer$@VectorSinConstantsSSE@@3P6AXXZEA 0000000180005ee8     MyCharacter.cpp.obj
 0002:00000ef0       ?AnimWeightThreshold$initializer$@GlobalVectorConstants@@3P6AXXZEA 0000000180005ef0     MyCharacter.cpp.obj
 0002:00000ef8       ?RotationSignificantThreshold$initializer$@GlobalVectorConstants@@3P6AXXZEA 0000000180005ef8     MyCharacter.cpp.obj
 0002:00000f00       ?InvalidBoundingBox$initializer$@FNavigationSystem@@3P6AXXZEA 0000000180005f00     MyCharacter.cpp.obj
 0002:00000f08       ?FloatOne$initializer$@GlobalVectorConstants@@3P6AXXZEA 0000000180005f08     ECSLearning.init.gen.cpp.obj
 0002:00000f10       ?FloatZero$initializer$@GlobalVectorConstants@@3P6AXXZEA 0000000180005f10     ECSLearning.init.gen.cpp.obj
 0002:00000f18       ?FloatMinusOne$initializer$@GlobalVectorConstants@@3P6AXXZEA 0000000180005f18     ECSLearning.init.gen.cpp.obj
 0002:00000f20       ?Float0001$initializer$@GlobalVectorConstants@@3P6AXXZEA 0000000180005f20     ECSLearning.init.gen.cpp.obj
 0002:00000f28       ?SmallLengthThreshold$initializer$@GlobalVectorConstants@@3P6AXXZEA 0000000180005f28     ECSLearning.init.gen.cpp.obj
 0002:00000f30       ?FloatOneHundredth$initializer$@GlobalVectorConstants@@3P6AXXZEA 0000000180005f30     ECSLearning.init.gen.cpp.obj
 0002:00000f38       ?Float111_Minus1$initializer$@GlobalVectorConstants@@3P6AXXZEA 0000000180005f38     ECSLearning.init.gen.cpp.obj
 0002:00000f40       ?FloatMinus1_111$initializer$@GlobalVectorConstants@@3P6AXXZEA 0000000180005f40     ECSLearning.init.gen.cpp.obj
 0002:00000f48       ?FloatOneHalf$initializer$@GlobalVectorConstants@@3P6AXXZEA 0000000180005f48     ECSLearning.init.gen.cpp.obj
 0002:00000f50       ?FloatMinusOneHalf$initializer$@GlobalVectorConstants@@3P6AXXZEA 0000000180005f50     ECSLearning.init.gen.cpp.obj
 0002:00000f58       ?KindaSmallNumber$initializer$@GlobalVectorConstants@@3P6AXXZEA 0000000180005f58     ECSLearning.init.gen.cpp.obj
 0002:00000f60       ?SmallNumber$initializer$@GlobalVectorConstants@@3P6AXXZEA 0000000180005f60     ECSLearning.init.gen.cpp.obj
 0002:00000f68       ?ThreshQuatNormalized$initializer$@GlobalVectorConstants@@3P6AXXZEA 0000000180005f68     ECSLearning.init.gen.cpp.obj
 0002:00000f70       ?BigNumber$initializer$@GlobalVectorConstants@@3P6AXXZEA 0000000180005f70     ECSLearning.init.gen.cpp.obj
 0002:00000f78       ?IntOne$initializer$@GlobalVectorConstants@@3P6AXXZEA 0000000180005f78     ECSLearning.init.gen.cpp.obj
 0002:00000f80       ?IntZero$initializer$@GlobalVectorConstants@@3P6AXXZEA 0000000180005f80     ECSLearning.init.gen.cpp.obj
 0002:00000f88       ?IntMinusOne$initializer$@GlobalVectorConstants@@3P6AXXZEA 0000000180005f88     ECSLearning.init.gen.cpp.obj
 0002:00000f90       ?QINV_SIGN_MASK$initializer$@GlobalVectorConstants@@3P6AXXZEA 0000000180005f90     ECSLearning.init.gen.cpp.obj
 0002:00000f98       ?QMULTI_SIGN_MASK0$initializer$@GlobalVectorConstants@@3P6AXXZEA 0000000180005f98     ECSLearning.init.gen.cpp.obj
 0002:00000fa0       ?QMULTI_SIGN_MASK1$initializer$@GlobalVectorConstants@@3P6AXXZEA 0000000180005fa0     ECSLearning.init.gen.cpp.obj
 0002:00000fa8       ?QMULTI_SIGN_MASK2$initializer$@GlobalVectorConstants@@3P6AXXZEA 0000000180005fa8     ECSLearning.init.gen.cpp.obj
 0002:00000fb0       ?DEG_TO_RAD$initializer$@GlobalVectorConstants@@3P6AXXZEA 0000000180005fb0     ECSLearning.init.gen.cpp.obj
 0002:00000fb8       ?DEG_TO_RAD_HALF$initializer$@GlobalVectorConstants@@3P6AXXZEA 0000000180005fb8     ECSLearning.init.gen.cpp.obj
 0002:00000fc0       ?RAD_TO_DEG$initializer$@GlobalVectorConstants@@3P6AXXZEA 0000000180005fc0     ECSLearning.init.gen.cpp.obj
 0002:00000fc8       ?XYZMask$initializer$@GlobalVectorConstants@@3P6AXXZEA 0000000180005fc8     ECSLearning.init.gen.cpp.obj
 0002:00000fd0       ?SignBit$initializer$@GlobalVectorConstants@@3P6AXXZEA 0000000180005fd0     ECSLearning.init.gen.cpp.obj
 0002:00000fd8       ?SignMask$initializer$@GlobalVectorConstants@@3P6AXXZEA 0000000180005fd8     ECSLearning.init.gen.cpp.obj
 0002:00000fe0       ?IntSignBit$initializer$@GlobalVectorConstants@@3P6AXXZEA 0000000180005fe0     ECSLearning.init.gen.cpp.obj
 0002:00000fe8       ?IntSignMask$initializer$@GlobalVectorConstants@@3P6AXXZEA 0000000180005fe8     ECSLearning.init.gen.cpp.obj
 0002:00000ff0       ?AllMask$initializer$@GlobalVectorConstants@@3P6AXXZEA 0000000180005ff0     ECSLearning.init.gen.cpp.obj
 0002:00000ff8       ?IntAllMask$initializer$@GlobalVectorConstants@@3P6AXXZEA 0000000180005ff8     ECSLearning.init.gen.cpp.obj
 0002:00001000       ?FloatInfinity$initializer$@GlobalVectorConstants@@3P6AXXZEA 0000000180006000     ECSLearning.init.gen.cpp.obj
 0002:00001008       ?Pi$initializer$@GlobalVectorConstants@@3P6AXXZEA 0000000180006008     ECSLearning.init.gen.cpp.obj
 0002:00001010       ?TwoPi$initializer$@GlobalVectorConstants@@3P6AXXZEA 0000000180006010     ECSLearning.init.gen.cpp.obj
 0002:00001018       ?PiByTwo$initializer$@GlobalVectorConstants@@3P6AXXZEA 0000000180006018     ECSLearning.init.gen.cpp.obj
 0002:00001020       ?PiByFour$initializer$@GlobalVectorConstants@@3P6AXXZEA 0000000180006020     ECSLearning.init.gen.cpp.obj
 0002:00001028       ?OneOverPi$initializer$@GlobalVectorConstants@@3P6AXXZEA 0000000180006028     ECSLearning.init.gen.cpp.obj
 0002:00001030       ?OneOverTwoPi$initializer$@GlobalVectorConstants@@3P6AXXZEA 0000000180006030     ECSLearning.init.gen.cpp.obj
 0002:00001038       ?Float255$initializer$@GlobalVectorConstants@@3P6AXXZEA 0000000180006038     ECSLearning.init.gen.cpp.obj
 0002:00001040       ?Float127$initializer$@GlobalVectorConstants@@3P6AXXZEA 0000000180006040     ECSLearning.init.gen.cpp.obj
 0002:00001048       ?FloatNeg127$initializer$@GlobalVectorConstants@@3P6AXXZEA 0000000180006048     ECSLearning.init.gen.cpp.obj
 0002:00001050       ?Float360$initializer$@GlobalVectorConstants@@3P6AXXZEA 0000000180006050     ECSLearning.init.gen.cpp.obj
 0002:00001058       ?Float180$initializer$@GlobalVectorConstants@@3P6AXXZEA 0000000180006058     ECSLearning.init.gen.cpp.obj
 0002:00001060       ?FloatTwo$initializer$@GlobalVectorConstants@@3P6AXXZEA 0000000180006060     ECSLearning.init.gen.cpp.obj
 0002:00001068       ?FloatAlmostTwo$initializer$@GlobalVectorConstants@@3P6AXXZEA 0000000180006068     ECSLearning.init.gen.cpp.obj
 0002:00001070       ?A$initializer$@VectorSinConstantsSSE@@3P6AXXZEA 0000000180006070     ECSLearning.init.gen.cpp.obj
 0002:00001078       ?B$initializer$@VectorSinConstantsSSE@@3P6AXXZEA 0000000180006078     ECSLearning.init.gen.cpp.obj
 0002:00001080       ?AnimWeightThreshold$initializer$@GlobalVectorConstants@@3P6AXXZEA 0000000180006080     ECSLearning.init.gen.cpp.obj
 0002:00001088       ?RotationSignificantThreshold$initializer$@GlobalVectorConstants@@3P6AXXZEA 0000000180006088     ECSLearning.init.gen.cpp.obj
 0002:00001090       ?FloatOne$initializer$@GlobalVectorConstants@@3P6AXXZEA 0000000180006090     MyCharacter.gen.cpp.obj
 0002:00001098       ?FloatZero$initializer$@GlobalVectorConstants@@3P6AXXZEA 0000000180006098     MyCharacter.gen.cpp.obj
 0002:000010a0       ?FloatMinusOne$initializer$@GlobalVectorConstants@@3P6AXXZEA 00000001800060a0     MyCharacter.gen.cpp.obj
 0002:000010a8       ?Float0001$initializer$@GlobalVectorConstants@@3P6AXXZEA 00000001800060a8     MyCharacter.gen.cpp.obj
 0002:000010b0       ?SmallLengthThreshold$initializer$@GlobalVectorConstants@@3P6AXXZEA 00000001800060b0     MyCharacter.gen.cpp.obj
 0002:000010b8       ?FloatOneHundredth$initializer$@GlobalVectorConstants@@3P6AXXZEA 00000001800060b8     MyCharacter.gen.cpp.obj
 0002:000010c0       ?Float111_Minus1$initializer$@GlobalVectorConstants@@3P6AXXZEA 00000001800060c0     MyCharacter.gen.cpp.obj
 0002:000010c8       ?FloatMinus1_111$initializer$@GlobalVectorConstants@@3P6AXXZEA 00000001800060c8     MyCharacter.gen.cpp.obj
 0002:000010d0       ?FloatOneHalf$initializer$@GlobalVectorConstants@@3P6AXXZEA 00000001800060d0     MyCharacter.gen.cpp.obj
 0002:000010d8       ?FloatMinusOneHalf$initializer$@GlobalVectorConstants@@3P6AXXZEA 00000001800060d8     MyCharacter.gen.cpp.obj
 0002:000010e0       ?KindaSmallNumber$initializer$@GlobalVectorConstants@@3P6AXXZEA 00000001800060e0     MyCharacter.gen.cpp.obj
 0002:000010e8       ?SmallNumber$initializer$@GlobalVectorConstants@@3P6AXXZEA 00000001800060e8     MyCharacter.gen.cpp.obj
 0002:000010f0       ?ThreshQuatNormalized$initializer$@GlobalVectorConstants@@3P6AXXZEA 00000001800060f0     MyCharacter.gen.cpp.obj
 0002:000010f8       ?BigNumber$initializer$@GlobalVectorConstants@@3P6AXXZEA 00000001800060f8     MyCharacter.gen.cpp.obj
 0002:00001100       ?IntOne$initializer$@GlobalVectorConstants@@3P6AXXZEA 0000000180006100     MyCharacter.gen.cpp.obj
 0002:00001108       ?IntZero$initializer$@GlobalVectorConstants@@3P6AXXZEA 0000000180006108     MyCharacter.gen.cpp.obj
 0002:00001110       ?IntMinusOne$initializer$@GlobalVectorConstants@@3P6AXXZEA 0000000180006110     MyCharacter.gen.cpp.obj
 0002:00001118       ?QINV_SIGN_MASK$initializer$@GlobalVectorConstants@@3P6AXXZEA 0000000180006118     MyCharacter.gen.cpp.obj
 0002:00001120       ?QMULTI_SIGN_MASK0$initializer$@GlobalVectorConstants@@3P6AXXZEA 0000000180006120     MyCharacter.gen.cpp.obj
 0002:00001128       ?QMULTI_SIGN_MASK1$initializer$@GlobalVectorConstants@@3P6AXXZEA 0000000180006128     MyCharacter.gen.cpp.obj
 0002:00001130       ?QMULTI_SIGN_MASK2$initializer$@GlobalVectorConstants@@3P6AXXZEA 0000000180006130     MyCharacter.gen.cpp.obj
 0002:00001138       ?DEG_TO_RAD$initializer$@GlobalVectorConstants@@3P6AXXZEA 0000000180006138     MyCharacter.gen.cpp.obj
 0002:00001140       ?DEG_TO_RAD_HALF$initializer$@GlobalVectorConstants@@3P6AXXZEA 0000000180006140     MyCharacter.gen.cpp.obj
 0002:00001148       ?RAD_TO_DEG$initializer$@GlobalVectorConstants@@3P6AXXZEA 0000000180006148     MyCharacter.gen.cpp.obj
 0002:00001150       ?XYZMask$initializer$@GlobalVectorConstants@@3P6AXXZEA 0000000180006150     MyCharacter.gen.cpp.obj
 0002:00001158       ?SignBit$initializer$@GlobalVectorConstants@@3P6AXXZEA 0000000180006158     MyCharacter.gen.cpp.obj
 0002:00001160       ?SignMask$initializer$@GlobalVectorConstants@@3P6AXXZEA 0000000180006160     MyCharacter.gen.cpp.obj
 0002:00001168       ?IntSignBit$initializer$@GlobalVectorConstants@@3P6AXXZEA 0000000180006168     MyCharacter.gen.cpp.obj
 0002:00001170       ?IntSignMask$initializer$@GlobalVectorConstants@@3P6AXXZEA 0000000180006170     MyCharacter.gen.cpp.obj
 0002:00001178       ?AllMask$initializer$@GlobalVectorConstants@@3P6AXXZEA 0000000180006178     MyCharacter.gen.cpp.obj
 0002:00001180       ?IntAllMask$initializer$@GlobalVectorConstants@@3P6AXXZEA 0000000180006180     MyCharacter.gen.cpp.obj
 0002:00001188       ?FloatInfinity$initializer$@GlobalVectorConstants@@3P6AXXZEA 0000000180006188     MyCharacter.gen.cpp.obj
 0002:00001190       ?Pi$initializer$@GlobalVectorConstants@@3P6AXXZEA 0000000180006190     MyCharacter.gen.cpp.obj
 0002:00001198       ?TwoPi$initializer$@GlobalVectorConstants@@3P6AXXZEA 0000000180006198     MyCharacter.gen.cpp.obj
 0002:000011a0       ?PiByTwo$initializer$@GlobalVectorConstants@@3P6AXXZEA 00000001800061a0     MyCharacter.gen.cpp.obj
 0002:000011a8       ?PiByFour$initializer$@GlobalVectorConstants@@3P6AXXZEA 00000001800061a8     MyCharacter.gen.cpp.obj
 0002:000011b0       ?OneOverPi$initializer$@GlobalVectorConstants@@3P6AXXZEA 00000001800061b0     MyCharacter.gen.cpp.obj
 0002:000011b8       ?OneOverTwoPi$initializer$@GlobalVectorConstants@@3P6AXXZEA 00000001800061b8     MyCharacter.gen.cpp.obj
 0002:000011c0       ?Float255$initializer$@GlobalVectorConstants@@3P6AXXZEA 00000001800061c0     MyCharacter.gen.cpp.obj
 0002:000011c8       ?Float127$initializer$@GlobalVectorConstants@@3P6AXXZEA 00000001800061c8     MyCharacter.gen.cpp.obj
 0002:000011d0       ?FloatNeg127$initializer$@GlobalVectorConstants@@3P6AXXZEA 00000001800061d0     MyCharacter.gen.cpp.obj
 0002:000011d8       ?Float360$initializer$@GlobalVectorConstants@@3P6AXXZEA 00000001800061d8     MyCharacter.gen.cpp.obj
 0002:000011e0       ?Float180$initializer$@GlobalVectorConstants@@3P6AXXZEA 00000001800061e0     MyCharacter.gen.cpp.obj
 0002:000011e8       ?FloatTwo$initializer$@GlobalVectorConstants@@3P6AXXZEA 00000001800061e8     MyCharacter.gen.cpp.obj
 0002:000011f0       ?FloatAlmostTwo$initializer$@GlobalVectorConstants@@3P6AXXZEA 00000001800061f0     MyCharacter.gen.cpp.obj
 0002:000011f8       ?A$initializer$@VectorSinConstantsSSE@@3P6AXXZEA 00000001800061f8     MyCharacter.gen.cpp.obj
 0002:00001200       ?B$initializer$@VectorSinConstantsSSE@@3P6AXXZEA 0000000180006200     MyCharacter.gen.cpp.obj
 0002:00001208       ?AnimWeightThreshold$initializer$@GlobalVectorConstants@@3P6AXXZEA 0000000180006208     MyCharacter.gen.cpp.obj
 0002:00001210       ?RotationSignificantThreshold$initializer$@GlobalVectorConstants@@3P6AXXZEA 0000000180006210     MyCharacter.gen.cpp.obj
 0002:00001218       ?InvalidBoundingBox$initializer$@FNavigationSystem@@3P6AXXZEA 0000000180006218     MyCharacter.gen.cpp.obj
 0002:00001220       ??DependentSingletons$initializer$@Z_Construct_UClass_AMyCharacter_Statics@@2P6AXXZEA@@3P6AXXZEA 0000000180006220     MyCharacter.gen.cpp.obj
 0002:00001228       ?AutoInitializeAMyCharacter$initializer$@@3P6AXXZEA 0000000180006228     MyCharacter.gen.cpp.obj
 0002:00001230       ?Z_CompiledInDefer_UClass_AMyCharacter$initializer$@@3P6AXXZEA 0000000180006230     MyCharacter.gen.cpp.obj
 0002:00001280       $SG35632                   0000000180006280     ECSLearning.cpp.obj
 0002:00001284       $SG35646                   0000000180006284     ECSLearning.cpp.obj
 0002:00001288       $SG3205                    0000000180006288     ECSLearning.cpp.obj
 0002:00001294       $SG3263                    0000000180006294     ECSLearning.cpp.obj
 0002:00001298       $SG3207                    0000000180006298     ECSLearning.cpp.obj
 0002:000012a4       ?AlmostTwoBits@GlobalVectorConstants@@3IB 00000001800062a4     ECSLearning.cpp.obj
 0002:000012a8       $SG3209                    00000001800062a8     ECSLearning.cpp.obj
 0002:000012b4       $SG129128                  00000001800062b4     ECSLearning.cpp.obj
 0002:000012b8       $SG3211                    00000001800062b8     ECSLearning.cpp.obj
 0002:000012c4       $SG129132                  00000001800062c4     ECSLearning.cpp.obj
 0002:000012c8       $SG3213                    00000001800062c8     ECSLearning.cpp.obj
 0002:000012d8       $SG3215                    00000001800062d8     ECSLearning.cpp.obj
 0002:000012e8       $SG3217                    00000001800062e8     ECSLearning.cpp.obj
 0002:000012f8       ?COLOR_DARK_WHITE@OutputDeviceColor@@3QEB_WEB 00000001800062f8     ECSLearning.cpp.obj
 0002:00001300       $SG3219                    0000000180006300     ECSLearning.cpp.obj
 0002:00001310       $SG3249                    0000000180006310     ECSLearning.cpp.obj
 0002:00001320       $SG3251                    0000000180006320     ECSLearning.cpp.obj
 0002:00001330       $SG3253                    0000000180006330     ECSLearning.cpp.obj
 0002:00001340       $SG3255                    0000000180006340     ECSLearning.cpp.obj
 0002:00001350       $SG3257                    0000000180006350     ECSLearning.cpp.obj
 0002:00001360       $SG3259                    0000000180006360     ECSLearning.cpp.obj
 0002:00001370       $SG3261                    0000000180006370     ECSLearning.cpp.obj
 0002:00001380       $SG129129                  0000000180006380     ECSLearning.cpp.obj
 0002:000013e0       $SG129130                  00000001800063e0     ECSLearning.cpp.obj
 0002:000013f8       $SG129134                  00000001800063f8     ECSLearning.cpp.obj
 0002:00001410       $SG129133                  0000000180006410     ECSLearning.cpp.obj
 0002:00001470       $cppxdata$??3@YAXPEAX@Z    0000000180006470     ECSLearning.cpp.obj
 0002:00001498       $cppxdata$??3@YAXPEAX_K@Z  0000000180006498     ECSLearning.cpp.obj
 0002:000014c0       $cppxdata$??_V@YAXPEAX@Z   00000001800064c0     ECSLearning.cpp.obj
 0002:000014e8       $cppxdata$??_V@YAXPEAX_K@Z 00000001800064e8     ECSLearning.cpp.obj
 0002:00001510       $cppxdata$??_GIModuleInterface@@UEAAPEAXI@Z 0000000180006510     ECSLearning.cpp.obj
 0002:00001538       $cppxdata$??_GFDefaultModuleImpl@@UEAAPEAXI@Z 0000000180006538     ECSLearning.cpp.obj
 0002:00001560       $cppxdata$??_GFDefaultGameModuleImpl@@UEAAPEAXI@Z 0000000180006560     ECSLearning.cpp.obj
 0002:00001900       $SG409883                  0000000180006900     MyCharacter.cpp.obj
 0002:00001902       $SG35632                   0000000180006902     MyCharacter.cpp.obj
 0002:00001910       $SG409884                  0000000180006910     MyCharacter.cpp.obj
 0002:00001978       $SG409885                  0000000180006978     MyCharacter.cpp.obj
 0002:00001988       $SG409887                  0000000180006988     MyCharacter.cpp.obj
 0002:00001990       $SG409888                  0000000180006990     MyCharacter.cpp.obj
 0002:000019f8       $SG409889                  00000001800069f8     MyCharacter.cpp.obj
 0002:00001a08       $SG409897                  0000000180006a08     MyCharacter.cpp.obj
 0002:00001a20       $SG409894                  0000000180006a20     MyCharacter.cpp.obj
 0002:00001a98       $SG410037                  0000000180006a98     MyCharacter.cpp.obj
 0002:00001aa0       $SG409895                  0000000180006aa0     MyCharacter.cpp.obj
 0002:00001b18       $SG410041                  0000000180006b18     MyCharacter.cpp.obj
 0002:00001b20       $SG409896                  0000000180006b20     MyCharacter.cpp.obj
 0002:00001b88       $SG410039                  0000000180006b88     MyCharacter.cpp.obj
 0002:00001b98       $SG410051                  0000000180006b98     MyCharacter.cpp.obj
 0002:00001bb0       $SG410038                  0000000180006bb0     MyCharacter.cpp.obj
 0002:00001c18       $SG410043                  0000000180006c18     MyCharacter.cpp.obj
 0002:00001c28       $SG394588                  0000000180006c28     MyCharacter.cpp.obj
 0002:00001c40       $SG410042                  0000000180006c40     MyCharacter.cpp.obj
 0002:00001ca8       $SG394586                  0000000180006ca8     MyCharacter.cpp.obj
 0002:00001cb0       $SG410048                  0000000180006cb0     MyCharacter.cpp.obj
 0002:00001d28       $SG394590                  0000000180006d28     MyCharacter.cpp.obj
 0002:00001d30       $SG410049                  0000000180006d30     MyCharacter.cpp.obj
 0002:00001da8       $SG394592                  0000000180006da8     MyCharacter.cpp.obj
 0002:00001dc0       $SG410050                  0000000180006dc0     MyCharacter.cpp.obj
 0002:00001e28       $SG279962                  0000000180006e28     MyCharacter.cpp.obj
 0002:00001e30       $SG394587                  0000000180006e30     MyCharacter.cpp.obj
 0002:00001e90       $SG394591                  0000000180006e90     MyCharacter.cpp.obj
 0002:00001ef0       $SG279963                  0000000180006ef0     MyCharacter.cpp.obj
 0002:00001f50       $SG279964                  0000000180006f50     MyCharacter.cpp.obj
 0002:00001fa4       $SG395033                  0000000180006fa4     MyCharacter.cpp.obj
 0002:00001fa8       $SG395035                  0000000180006fa8     MyCharacter.cpp.obj
 0002:00001fc0       $SG395034                  0000000180006fc0     MyCharacter.cpp.obj
 0002:0000201c       $SG395037                  000000018000701c     MyCharacter.cpp.obj
 0002:00002020       $SG395038                  0000000180007020     MyCharacter.cpp.obj
 0002:0000207c       $SG395246                  000000018000707c     MyCharacter.cpp.obj
 0002:00002080       $SG395039                  0000000180007080     MyCharacter.cpp.obj
 0002:00002098       $SG395248                  0000000180007098     MyCharacter.cpp.obj
 0002:000020b0       $SG395247                  00000001800070b0     MyCharacter.cpp.obj
 0002:0000210c       $SG395250                  000000018000710c     MyCharacter.cpp.obj
 0002:00002110       $SG395251                  0000000180007110     MyCharacter.cpp.obj
 0002:0000216c       $SG395266                  000000018000716c     MyCharacter.cpp.obj
 0002:00002170       $SG395252                  0000000180007170     MyCharacter.cpp.obj
 0002:00002188       $SG395268                  0000000180007188     MyCharacter.cpp.obj
 0002:000021a0       $SG395267                  00000001800071a0     MyCharacter.cpp.obj
 0002:000021fc       $SG395270                  00000001800071fc     MyCharacter.cpp.obj
 0002:00002200       $SG395271                  0000000180007200     MyCharacter.cpp.obj
 0002:0000225c       $SG35646                   000000018000725c     MyCharacter.cpp.obj
 0002:00002260       $SG395272                  0000000180007260     MyCharacter.cpp.obj
 0002:00002274       $SG388049                  0000000180007274     MyCharacter.cpp.obj
 0002:00002278       $SG388051                  0000000180007278     MyCharacter.cpp.obj
 0002:00002290       $SG388050                  0000000180007290     MyCharacter.cpp.obj
 0002:000022ec       $SG388053                  00000001800072ec     MyCharacter.cpp.obj
 0002:000022f0       $SG388054                  00000001800072f0     MyCharacter.cpp.obj
 0002:0000234c       $SG388061                  000000018000734c     MyCharacter.cpp.obj
 0002:00002350       $SG388055                  0000000180007350     MyCharacter.cpp.obj
 0002:00002368       $SG388063                  0000000180007368     MyCharacter.cpp.obj
 0002:00002380       $SG388062                  0000000180007380     MyCharacter.cpp.obj
 0002:000023dc       $SG388065                  00000001800073dc     MyCharacter.cpp.obj
 0002:000023e0       $SG388066                  00000001800073e0     MyCharacter.cpp.obj
 0002:0000243c       $SG3263                    000000018000743c     MyCharacter.cpp.obj
 0002:00002440       $SG388067                  0000000180007440     MyCharacter.cpp.obj
 0002:00002454       ?AlmostTwoBits@GlobalVectorConstants@@3IB 0000000180007454     MyCharacter.cpp.obj
 0002:00002458       $SG3205                    0000000180007458     MyCharacter.cpp.obj
 0002:00002464       $SG398470                  0000000180007464     MyCharacter.cpp.obj
 0002:00002468       $SG3207                    0000000180007468     MyCharacter.cpp.obj
 0002:00002474       $SG398474                  0000000180007474     MyCharacter.cpp.obj
 0002:00002478       $SG3209                    0000000180007478     MyCharacter.cpp.obj
 0002:00002484       $SG398692                  0000000180007484     MyCharacter.cpp.obj
 0002:00002488       $SG3211                    0000000180007488     MyCharacter.cpp.obj
 0002:00002494       $SG398696                  0000000180007494     MyCharacter.cpp.obj
 0002:00002498       $SG3213                    0000000180007498     MyCharacter.cpp.obj
 0002:000024a4       $SG398705                  00000001800074a4     MyCharacter.cpp.obj
 0002:000024a8       $SG3215                    00000001800074a8     MyCharacter.cpp.obj
 0002:000024b4       $SG398709                  00000001800074b4     MyCharacter.cpp.obj
 0002:000024b8       $SG3217                    00000001800074b8     MyCharacter.cpp.obj
 0002:000024c4       $SG390540                  00000001800074c4     MyCharacter.cpp.obj
 0002:000024c8       ?COLOR_DARK_WHITE@OutputDeviceColor@@3QEB_WEB 00000001800074c8     MyCharacter.cpp.obj
 0002:000024d0       $SG3219                    00000001800074d0     MyCharacter.cpp.obj
 0002:000024dc       $SG390544                  00000001800074dc     MyCharacter.cpp.obj
 0002:000024e0       $SG3249                    00000001800074e0     MyCharacter.cpp.obj
 0002:000024ec       $SG407740                  00000001800074ec     MyCharacter.cpp.obj
 0002:000024f0       $SG3251                    00000001800074f0     MyCharacter.cpp.obj
 0002:000024fc       $SG407744                  00000001800074fc     MyCharacter.cpp.obj
 0002:00002500       $SG3253                    0000000180007500     MyCharacter.cpp.obj
 0002:0000250c       $SG399900                  000000018000750c     MyCharacter.cpp.obj
 0002:00002510       $SG3255                    0000000180007510     MyCharacter.cpp.obj
 0002:0000251c       $SG399904                  000000018000751c     MyCharacter.cpp.obj
 0002:00002520       $SG3257                    0000000180007520     MyCharacter.cpp.obj
 0002:0000252c       $SG400002                  000000018000752c     MyCharacter.cpp.obj
 0002:00002530       $SG3259                    0000000180007530     MyCharacter.cpp.obj
 0002:0000253c       $SG400006                  000000018000753c     MyCharacter.cpp.obj
 0002:00002540       $SG3261                    0000000180007540     MyCharacter.cpp.obj
 0002:00002550       $SG398471                  0000000180007550     MyCharacter.cpp.obj
 0002:000025ac       $SG400032                  00000001800075ac     MyCharacter.cpp.obj
 0002:000025b0       $SG398472                  00000001800075b0     MyCharacter.cpp.obj
 0002:000025c8       $SG398476                  00000001800075c8     MyCharacter.cpp.obj
 0002:000025e0       $SG398475                  00000001800075e0     MyCharacter.cpp.obj
 0002:00002640       $SG398693                  0000000180007640     MyCharacter.cpp.obj
 0002:000026a4       $SG400036                  00000001800076a4     MyCharacter.cpp.obj
 0002:000026a8       $SG398694                  00000001800076a8     MyCharacter.cpp.obj
 0002:000026c0       $SG398697                  00000001800076c0     MyCharacter.cpp.obj
 0002:00002724       $SG409243                  0000000180007724     MyCharacter.cpp.obj
 0002:00002728       $SG398698                  0000000180007728     MyCharacter.cpp.obj
 0002:00002740       $SG398706                  0000000180007740     MyCharacter.cpp.obj
 0002:000027a4       $SG409247                  00000001800077a4     MyCharacter.cpp.obj
 0002:000027a8       $SG398707                  00000001800077a8     MyCharacter.cpp.obj
 0002:000027c0       $SG398710                  00000001800077c0     MyCharacter.cpp.obj
 0002:00002824       $SG409397                  0000000180007824     MyCharacter.cpp.obj
 0002:00002828       $SG398711                  0000000180007828     MyCharacter.cpp.obj
 0002:00002840       $SG390541                  0000000180007840     MyCharacter.cpp.obj
 0002:0000289c       $SG409401                  000000018000789c     MyCharacter.cpp.obj
 0002:000028a0       $SG390542                  00000001800078a0     MyCharacter.cpp.obj
 0002:000028b8       $SG390546                  00000001800078b8     MyCharacter.cpp.obj
 0002:000028d0       $SG390545                  00000001800078d0     MyCharacter.cpp.obj
 0002:00002930       $SG407741                  0000000180007930     MyCharacter.cpp.obj
 0002:0000298c       $SG409551                  000000018000798c     MyCharacter.cpp.obj
 0002:00002990       $SG407742                  0000000180007990     MyCharacter.cpp.obj
 0002:000029a8       $SG407746                  00000001800079a8     MyCharacter.cpp.obj
 0002:000029c0       $SG407745                  00000001800079c0     MyCharacter.cpp.obj
 0002:00002a20       $SG399901                  0000000180007a20     MyCharacter.cpp.obj
 0002:00002a7c       $SG409555                  0000000180007a7c     MyCharacter.cpp.obj
 0002:00002a80       $SG399902                  0000000180007a80     MyCharacter.cpp.obj
 0002:00002a98       $SG399906                  0000000180007a98     MyCharacter.cpp.obj
 0002:00002ab0       $SG399905                  0000000180007ab0     MyCharacter.cpp.obj
 0002:00002b10       $SG400003                  0000000180007b10     MyCharacter.cpp.obj
 0002:00002b70       $SG400004                  0000000180007b70     MyCharacter.cpp.obj
 0002:00002b88       $SG400008                  0000000180007b88     MyCharacter.cpp.obj
 0002:00002ba0       $SG400007                  0000000180007ba0     MyCharacter.cpp.obj
 0002:00002c00       $SG400033                  0000000180007c00     MyCharacter.cpp.obj
 0002:00002c60       $SG400034                  0000000180007c60     MyCharacter.cpp.obj
 0002:00002c78       $SG400038                  0000000180007c78     MyCharacter.cpp.obj
 0002:00002c90       $SG400037                  0000000180007c90     MyCharacter.cpp.obj
 0002:00002cf0       $SG409244                  0000000180007cf0     MyCharacter.cpp.obj
 0002:00002d58       $SG409245                  0000000180007d58     MyCharacter.cpp.obj
 0002:00002d70       $SG409248                  0000000180007d70     MyCharacter.cpp.obj
 0002:00002dd8       $SG409249                  0000000180007dd8     MyCharacter.cpp.obj
 0002:00002df0       $SG409254                  0000000180007df0     MyCharacter.cpp.obj
 0002:00002e70       $SG409255                  0000000180007e70     MyCharacter.cpp.obj
 0002:00002ef0       $SG409256                  0000000180007ef0     MyCharacter.cpp.obj
 0002:00002f58       $SG409257                  0000000180007f58     MyCharacter.cpp.obj
 0002:00002f70       $SG409398                  0000000180007f70     MyCharacter.cpp.obj
 0002:00002fd8       $SG409399                  0000000180007fd8     MyCharacter.cpp.obj
 0002:00002ff0       $SG409402                  0000000180007ff0     MyCharacter.cpp.obj
 0002:00003058       $SG409403                  0000000180008058     MyCharacter.cpp.obj
 0002:00003070       $SG409408                  0000000180008070     MyCharacter.cpp.obj
 0002:000030f0       $SG409409                  00000001800080f0     MyCharacter.cpp.obj
 0002:00003170       $SG409410                  0000000180008170     MyCharacter.cpp.obj
 0002:000031d8       $SG409411                  00000001800081d8     MyCharacter.cpp.obj
 0002:000031f0       $SG409552                  00000001800081f0     MyCharacter.cpp.obj
 0002:00003258       $SG409553                  0000000180008258     MyCharacter.cpp.obj
 0002:00003270       $SG409556                  0000000180008270     MyCharacter.cpp.obj
 0002:000032d8       $SG409557                  00000001800082d8     MyCharacter.cpp.obj
 0002:000032f0       $SG409562                  00000001800082f0     MyCharacter.cpp.obj
 0002:00003370       $SG409563                  0000000180008370     MyCharacter.cpp.obj
 0002:000033f0       $SG409564                  00000001800083f0     MyCharacter.cpp.obj
 0002:00003458       $SG409565                  0000000180008458     MyCharacter.cpp.obj
 0002:00003470       $cppxdata$??_EAMyCharacter@@UEAAPEAXI@Z 0000000180008470     MyCharacter.cpp.obj
 0002:00003e90       $SG180499                  0000000180008e90     ECSLearning.init.gen.cpp.obj
 0002:00003ea4       $SG207108                  0000000180008ea4     ECSLearning.init.gen.cpp.obj
 0002:00003ea6       $SG35632                   0000000180008ea6     ECSLearning.init.gen.cpp.obj
 0002:00003eb0       $SG207109                  0000000180008eb0     ECSLearning.init.gen.cpp.obj
 0002:00003f14       $SG207112                  0000000180008f14     ECSLearning.init.gen.cpp.obj
 0002:00003f18       $SG207110                  0000000180008f18     ECSLearning.init.gen.cpp.obj
 0002:00003f30       $SG207113                  0000000180008f30     ECSLearning.init.gen.cpp.obj
 0002:00003f94       $SG207121                  0000000180008f94     ECSLearning.init.gen.cpp.obj
 0002:00003f98       $SG207114                  0000000180008f98     ECSLearning.init.gen.cpp.obj
 0002:00003fb0       $SG207122                  0000000180008fb0     ECSLearning.init.gen.cpp.obj
 0002:00004014       $SG207125                  0000000180009014     ECSLearning.init.gen.cpp.obj
 0002:00004018       $SG207123                  0000000180009018     ECSLearning.init.gen.cpp.obj
 0002:00004030       $SG207126                  0000000180009030     ECSLearning.init.gen.cpp.obj
 0002:00004094       $SG35646                   0000000180009094     ECSLearning.init.gen.cpp.obj
 0002:00004098       $SG207127                  0000000180009098     ECSLearning.init.gen.cpp.obj
 0002:000040ac       $SG3263                    00000001800090ac     ECSLearning.init.gen.cpp.obj
 0002:000040b0       $SG3205                    00000001800090b0     ECSLearning.init.gen.cpp.obj
 0002:000040bc       $SG208402                  00000001800090bc     ECSLearning.init.gen.cpp.obj
 0002:000040c0       $SG3207                    00000001800090c0     ECSLearning.init.gen.cpp.obj
 0002:000040cc       $SG208406                  00000001800090cc     ECSLearning.init.gen.cpp.obj
 0002:000040d0       $SG3209                    00000001800090d0     ECSLearning.init.gen.cpp.obj
 0002:000040dc       ?AlmostTwoBits@GlobalVectorConstants@@3IB 00000001800090dc     ECSLearning.init.gen.cpp.obj
 0002:000040e0       $SG3211                    00000001800090e0     ECSLearning.init.gen.cpp.obj
 0002:000040ec       $SG203157                  00000001800090ec     ECSLearning.init.gen.cpp.obj
 0002:000040f0       $SG3213                    00000001800090f0     ECSLearning.init.gen.cpp.obj
 0002:000040fc       $SG203161                  00000001800090fc     ECSLearning.init.gen.cpp.obj
 0002:00004100       $SG3215                    0000000180009100     ECSLearning.init.gen.cpp.obj
 0002:0000410c       $SG203169                  000000018000910c     ECSLearning.init.gen.cpp.obj
 0002:00004110       $SG3217                    0000000180009110     ECSLearning.init.gen.cpp.obj
 0002:0000411c       $SG203173                  000000018000911c     ECSLearning.init.gen.cpp.obj
 0002:00004120       ?COLOR_DARK_WHITE@OutputDeviceColor@@3QEB_WEB 0000000180009120     ECSLearning.init.gen.cpp.obj
 0002:00004128       $SG3219                    0000000180009128     ECSLearning.init.gen.cpp.obj
 0002:00004134       $SG211391                  0000000180009134     ECSLearning.init.gen.cpp.obj
 0002:00004138       $SG3249                    0000000180009138     ECSLearning.init.gen.cpp.obj
 0002:00004144       $SG211395                  0000000180009144     ECSLearning.init.gen.cpp.obj
 0002:00004148       $SG3251                    0000000180009148     ECSLearning.init.gen.cpp.obj
 0002:00004158       $SG3253                    0000000180009158     ECSLearning.init.gen.cpp.obj
 0002:00004168       $SG3255                    0000000180009168     ECSLearning.init.gen.cpp.obj
 0002:00004178       $SG3257                    0000000180009178     ECSLearning.init.gen.cpp.obj
 0002:00004188       $SG3259                    0000000180009188     ECSLearning.init.gen.cpp.obj
 0002:00004198       $SG3261                    0000000180009198     ECSLearning.init.gen.cpp.obj
 0002:000041b0       $SG208403                  00000001800091b0     ECSLearning.init.gen.cpp.obj
 0002:00004210       $SG208404                  0000000180009210     ECSLearning.init.gen.cpp.obj
 0002:00004230       $SG208407                  0000000180009230     ECSLearning.init.gen.cpp.obj
 0002:00004290       $SG208408                  0000000180009290     ECSLearning.init.gen.cpp.obj
 0002:000042b0       $SG203158                  00000001800092b0     ECSLearning.init.gen.cpp.obj
 0002:00004310       $SG203159                  0000000180009310     ECSLearning.init.gen.cpp.obj
 0002:00004330       $SG203162                  0000000180009330     ECSLearning.init.gen.cpp.obj
 0002:00004390       $SG203163                  0000000180009390     ECSLearning.init.gen.cpp.obj
 0002:000043b0       $SG203170                  00000001800093b0     ECSLearning.init.gen.cpp.obj
 0002:00004410       $SG203171                  0000000180009410     ECSLearning.init.gen.cpp.obj
 0002:00004430       $SG203174                  0000000180009430     ECSLearning.init.gen.cpp.obj
 0002:00004490       $SG203175                  0000000180009490     ECSLearning.init.gen.cpp.obj
 0002:000044b0       $SG211392                  00000001800094b0     ECSLearning.init.gen.cpp.obj
 0002:00004510       $SG211393                  0000000180009510     ECSLearning.init.gen.cpp.obj
 0002:00004530       $SG211396                  0000000180009530     ECSLearning.init.gen.cpp.obj
 0002:00004590       $SG211397                  0000000180009590     ECSLearning.init.gen.cpp.obj
 0002:000045a8       ?PackageParams@?4??Z_Construct_UPackage__Script_ECSLearning@@YAPEAVUPackage@@XZ@4UFPackageParams@UE4CodeGen_Private@@B 00000001800095a8     ECSLearning.init.gen.cpp.obj
 0002:000045e0       $SG286792                  00000001800095e0     MyCharacter.gen.cpp.obj
 0002:000045e2       $SG35632                   00000001800095e2     MyCharacter.gen.cpp.obj
 0002:000045e4       $SG402065                  00000001800095e4     MyCharacter.gen.cpp.obj
 0002:000045f0       $SG286793                  00000001800095f0     MyCharacter.gen.cpp.obj
 0002:00004650       $SG286794                  0000000180009650     MyCharacter.gen.cpp.obj
 0002:000046a8       $SG402067                  00000001800096a8     MyCharacter.gen.cpp.obj
 0002:000046c0       $SG402066                  00000001800096c0     MyCharacter.gen.cpp.obj
 0002:0000471c       $SG402069                  000000018000971c     MyCharacter.gen.cpp.obj
 0002:00004720       $SG402070                  0000000180009720     MyCharacter.gen.cpp.obj
 0002:0000477c       $SG402512                  000000018000977c     MyCharacter.gen.cpp.obj
 0002:00004780       $SG402071                  0000000180009780     MyCharacter.gen.cpp.obj
 0002:00004798       $SG402514                  0000000180009798     MyCharacter.gen.cpp.obj
 0002:000047b0       $SG402513                  00000001800097b0     MyCharacter.gen.cpp.obj
 0002:0000480c       $SG402516                  000000018000980c     MyCharacter.gen.cpp.obj
 0002:00004810       $SG402517                  0000000180009810     MyCharacter.gen.cpp.obj
 0002:0000486c       $SG402725                  000000018000986c     MyCharacter.gen.cpp.obj
 0002:00004870       $SG402518                  0000000180009870     MyCharacter.gen.cpp.obj
 0002:00004888       $SG402727                  0000000180009888     MyCharacter.gen.cpp.obj
 0002:000048a0       $SG402726                  00000001800098a0     MyCharacter.gen.cpp.obj
 0002:000048fc       $SG402729                  00000001800098fc     MyCharacter.gen.cpp.obj
 0002:00004900       $SG402730                  0000000180009900     MyCharacter.gen.cpp.obj
 0002:0000495c       $SG402745                  000000018000995c     MyCharacter.gen.cpp.obj
 0002:00004960       $SG402731                  0000000180009960     MyCharacter.gen.cpp.obj
 0002:00004978       $SG402747                  0000000180009978     MyCharacter.gen.cpp.obj
 0002:00004990       $SG402746                  0000000180009990     MyCharacter.gen.cpp.obj
 0002:000049ec       $SG402749                  00000001800099ec     MyCharacter.gen.cpp.obj
 0002:000049f0       $SG402750                  00000001800099f0     MyCharacter.gen.cpp.obj
 0002:00004a4c       $SG395526                  0000000180009a4c     MyCharacter.gen.cpp.obj
 0002:00004a50       $SG402751                  0000000180009a50     MyCharacter.gen.cpp.obj
 0002:00004a68       $SG395528                  0000000180009a68     MyCharacter.gen.cpp.obj
 0002:00004a80       $SG395527                  0000000180009a80     MyCharacter.gen.cpp.obj
 0002:00004adc       $SG395530                  0000000180009adc     MyCharacter.gen.cpp.obj
 0002:00004ae0       $SG395531                  0000000180009ae0     MyCharacter.gen.cpp.obj
 0002:00004b3c       $SG395538                  0000000180009b3c     MyCharacter.gen.cpp.obj
 0002:00004b40       $SG395532                  0000000180009b40     MyCharacter.gen.cpp.obj
 0002:00004b58       $SG395540                  0000000180009b58     MyCharacter.gen.cpp.obj
 0002:00004b70       $SG395539                  0000000180009b70     MyCharacter.gen.cpp.obj
 0002:00004bcc       $SG395542                  0000000180009bcc     MyCharacter.gen.cpp.obj
 0002:00004bd0       $SG395543                  0000000180009bd0     MyCharacter.gen.cpp.obj
 0002:00004c2c       $SG35646                   0000000180009c2c     MyCharacter.gen.cpp.obj
 0002:00004c30       $SG395544                  0000000180009c30     MyCharacter.gen.cpp.obj
 0002:00004c44       $SG3263                    0000000180009c44     MyCharacter.gen.cpp.obj
 0002:00004c48       $SG3205                    0000000180009c48     MyCharacter.gen.cpp.obj
 0002:00004c54       $SG405950                  0000000180009c54     MyCharacter.gen.cpp.obj
 0002:00004c58       $SG3207                    0000000180009c58     MyCharacter.gen.cpp.obj
 0002:00004c64       ?AlmostTwoBits@GlobalVectorConstants@@3IB 0000000180009c64     MyCharacter.gen.cpp.obj
 0002:00004c68       $SG3209                    0000000180009c68     MyCharacter.gen.cpp.obj
 0002:00004c74       $SG405954                  0000000180009c74     MyCharacter.gen.cpp.obj
 0002:00004c78       $SG3211                    0000000180009c78     MyCharacter.gen.cpp.obj
 0002:00004c84       $SG406172                  0000000180009c84     MyCharacter.gen.cpp.obj
 0002:00004c88       $SG3213                    0000000180009c88     MyCharacter.gen.cpp.obj
 0002:00004c94       $SG406176                  0000000180009c94     MyCharacter.gen.cpp.obj
 0002:00004c98       $SG3215                    0000000180009c98     MyCharacter.gen.cpp.obj
 0002:00004ca4       $SG406185                  0000000180009ca4     MyCharacter.gen.cpp.obj
 0002:00004ca8       $SG3217                    0000000180009ca8     MyCharacter.gen.cpp.obj
 0002:00004cb4       $SG406189                  0000000180009cb4     MyCharacter.gen.cpp.obj
 0002:00004cb8       ?COLOR_DARK_WHITE@OutputDeviceColor@@3QEB_WEB 0000000180009cb8     MyCharacter.gen.cpp.obj
 0002:00004cc0       $SG3219                    0000000180009cc0     MyCharacter.gen.cpp.obj
 0002:00004ccc       $SG398109                  0000000180009ccc     MyCharacter.gen.cpp.obj
 0002:00004cd0       $SG3249                    0000000180009cd0     MyCharacter.gen.cpp.obj
 0002:00004cdc       $SG398113                  0000000180009cdc     MyCharacter.gen.cpp.obj
 0002:00004ce0       $SG3251                    0000000180009ce0     MyCharacter.gen.cpp.obj
 0002:00004cec       $SG415221                  0000000180009cec     MyCharacter.gen.cpp.obj
 0002:00004cf0       $SG3253                    0000000180009cf0     MyCharacter.gen.cpp.obj
 0002:00004cfc       $SG415225                  0000000180009cfc     MyCharacter.gen.cpp.obj
 0002:00004d00       $SG3255                    0000000180009d00     MyCharacter.gen.cpp.obj
 0002:00004d0c       $SG407380                  0000000180009d0c     MyCharacter.gen.cpp.obj
 0002:00004d10       $SG3257                    0000000180009d10     MyCharacter.gen.cpp.obj
 0002:00004d1c       $SG407384                  0000000180009d1c     MyCharacter.gen.cpp.obj
 0002:00004d20       $SG3259                    0000000180009d20     MyCharacter.gen.cpp.obj
 0002:00004d2c       $SG407482                  0000000180009d2c     MyCharacter.gen.cpp.obj
 0002:00004d30       $SG3261                    0000000180009d30     MyCharacter.gen.cpp.obj
 0002:00004d40       $SG405951                  0000000180009d40     MyCharacter.gen.cpp.obj
 0002:00004d9c       $SG407486                  0000000180009d9c     MyCharacter.gen.cpp.obj
 0002:00004da0       $SG405952                  0000000180009da0     MyCharacter.gen.cpp.obj
 0002:00004db8       $SG405956                  0000000180009db8     MyCharacter.gen.cpp.obj
 0002:00004dd0       $SG405955                  0000000180009dd0     MyCharacter.gen.cpp.obj
 0002:00004e30       $SG406173                  0000000180009e30     MyCharacter.gen.cpp.obj
 0002:00004e94       $SG407512                  0000000180009e94     MyCharacter.gen.cpp.obj
 0002:00004e98       $SG406174                  0000000180009e98     MyCharacter.gen.cpp.obj
 0002:00004eb0       $SG406177                  0000000180009eb0     MyCharacter.gen.cpp.obj
 0002:00004f14       $SG407516                  0000000180009f14     MyCharacter.gen.cpp.obj
 0002:00004f18       $SG406178                  0000000180009f18     MyCharacter.gen.cpp.obj
 0002:00004f30       $SG406186                  0000000180009f30     MyCharacter.gen.cpp.obj
 0002:00004f94       $SG416732                  0000000180009f94     MyCharacter.gen.cpp.obj
 0002:00004f98       $SG406187                  0000000180009f98     MyCharacter.gen.cpp.obj
 0002:00004fb0       $SG406190                  0000000180009fb0     MyCharacter.gen.cpp.obj
 0002:00005014       $SG416736                  000000018000a014     MyCharacter.gen.cpp.obj
 0002:00005018       $SG406191                  000000018000a018     MyCharacter.gen.cpp.obj
 0002:00005030       $SG398110                  000000018000a030     MyCharacter.gen.cpp.obj
 0002:0000508c       $SG416886                  000000018000a08c     MyCharacter.gen.cpp.obj
 0002:00005090       $SG398111                  000000018000a090     MyCharacter.gen.cpp.obj
 0002:000050a8       $SG398115                  000000018000a0a8     MyCharacter.gen.cpp.obj
 0002:000050c0       $SG398114                  000000018000a0c0     MyCharacter.gen.cpp.obj
 0002:00005120       $SG415222                  000000018000a120     MyCharacter.gen.cpp.obj
 0002:0000517c       $SG416890                  000000018000a17c     MyCharacter.gen.cpp.obj
 0002:00005180       $SG415223                  000000018000a180     MyCharacter.gen.cpp.obj
 0002:00005198       $SG415227                  000000018000a198     MyCharacter.gen.cpp.obj
 0002:000051b0       $SG415226                  000000018000a1b0     MyCharacter.gen.cpp.obj
 0002:00005210       $SG407381                  000000018000a210     MyCharacter.gen.cpp.obj
 0002:0000526c       $SG417040                  000000018000a26c     MyCharacter.gen.cpp.obj
 0002:00005270       $SG407382                  000000018000a270     MyCharacter.gen.cpp.obj
 0002:00005288       $SG407386                  000000018000a288     MyCharacter.gen.cpp.obj
 0002:000052a0       $SG407385                  000000018000a2a0     MyCharacter.gen.cpp.obj
 0002:00005300       $SG407483                  000000018000a300     MyCharacter.gen.cpp.obj
 0002:0000535c       $SG417044                  000000018000a35c     MyCharacter.gen.cpp.obj
 0002:00005360       $SG407484                  000000018000a360     MyCharacter.gen.cpp.obj
 0002:00005378       $SG407488                  000000018000a378     MyCharacter.gen.cpp.obj
 0002:00005390       $SG407487                  000000018000a390     MyCharacter.gen.cpp.obj
 0002:000053f0       $SG407513                  000000018000a3f0     MyCharacter.gen.cpp.obj
 0002:0000544c       $SG417372                  000000018000a44c     MyCharacter.gen.cpp.obj
 0002:00005450       $SG407514                  000000018000a450     MyCharacter.gen.cpp.obj
 0002:00005468       $SG407518                  000000018000a468     MyCharacter.gen.cpp.obj
 0002:00005480       $SG407517                  000000018000a480     MyCharacter.gen.cpp.obj
 0002:000054e0       $SG416733                  000000018000a4e0     MyCharacter.gen.cpp.obj
 0002:00005548       $SG416734                  000000018000a548     MyCharacter.gen.cpp.obj
 0002:00005558       $SG416746                  000000018000a558     MyCharacter.gen.cpp.obj
 0002:00005570       $SG416737                  000000018000a570     MyCharacter.gen.cpp.obj
 0002:000055d8       $SG416738                  000000018000a5d8     MyCharacter.gen.cpp.obj
 0002:00005618       $SG351235                  000000018000a618     MyCharacter.gen.cpp.obj
 0002:00005630       $SG416743                  000000018000a630     MyCharacter.gen.cpp.obj
 0002:000056a8       $SG351330                  000000018000a6a8     MyCharacter.gen.cpp.obj
 0002:000056d0       $SG416744                  000000018000a6d0     MyCharacter.gen.cpp.obj
 0002:00005748       $SG416900                  000000018000a748     MyCharacter.gen.cpp.obj
 0002:00005760       $SG416745                  000000018000a760     MyCharacter.gen.cpp.obj
 0002:000057c8       $SG351231                  000000018000a7c8     MyCharacter.gen.cpp.obj
 0002:000057d8       $SG417054                  000000018000a7d8     MyCharacter.gen.cpp.obj
 0002:00005858       $SG351232                  000000018000a858     MyCharacter.gen.cpp.obj
 0002:00005864       $SG417376                  000000018000a864     MyCharacter.gen.cpp.obj
 0002:00005868       $SG351233                  000000018000a868     MyCharacter.gen.cpp.obj
 0002:00005874       $SG417526                  000000018000a874     MyCharacter.gen.cpp.obj
 0002:00005878       $SG351234                  000000018000a878     MyCharacter.gen.cpp.obj
 0002:00005888       $SG351236                  000000018000a888     MyCharacter.gen.cpp.obj
 0002:00005898       $SG351304                  000000018000a898     MyCharacter.gen.cpp.obj
 0002:000058b4       $SG417530                  000000018000a8b4     MyCharacter.gen.cpp.obj
 0002:000058b8       $SG351324                  000000018000a8b8     MyCharacter.gen.cpp.obj
 0002:000058d8       $SG351329                  000000018000a8d8     MyCharacter.gen.cpp.obj
 0002:000058f8       $SG416888                  000000018000a8f8     MyCharacter.gen.cpp.obj
 0002:00005910       $SG416887                  000000018000a910     MyCharacter.gen.cpp.obj
 0002:00005980       $SG416891                  000000018000a980     MyCharacter.gen.cpp.obj
 0002:000059e8       $SG416892                  000000018000a9e8     MyCharacter.gen.cpp.obj
 0002:00005a00       $SG416897                  000000018000aa00     MyCharacter.gen.cpp.obj
 0002:00005a80       $SG416898                  000000018000aa80     MyCharacter.gen.cpp.obj
 0002:00005b00       $SG416899                  000000018000ab00     MyCharacter.gen.cpp.obj
 0002:00005b70       $SG417041                  000000018000ab70     MyCharacter.gen.cpp.obj
 0002:00005bd8       $SG417042                  000000018000abd8     MyCharacter.gen.cpp.obj
 0002:00005bf0       $SG417045                  000000018000abf0     MyCharacter.gen.cpp.obj
 0002:00005c58       $SG417046                  000000018000ac58     MyCharacter.gen.cpp.obj
 0002:00005c70       $SG417051                  000000018000ac70     MyCharacter.gen.cpp.obj
 0002:00005cf0       $SG417052                  000000018000acf0     MyCharacter.gen.cpp.obj
 0002:00005d70       $SG417053                  000000018000ad70     MyCharacter.gen.cpp.obj
 0002:00005de0       $SG417373                  000000018000ade0     MyCharacter.gen.cpp.obj
 0002:00005e48       $SG417374                  000000018000ae48     MyCharacter.gen.cpp.obj
 0002:00005e60       $SG417377                  000000018000ae60     MyCharacter.gen.cpp.obj
 0002:00005ec8       $SG417378                  000000018000aec8     MyCharacter.gen.cpp.obj
 0002:00005ee0       $SG417383                  000000018000aee0     MyCharacter.gen.cpp.obj
 0002:00005f60       $SG417384                  000000018000af60     MyCharacter.gen.cpp.obj
 0002:00005fe0       $SG417385                  000000018000afe0     MyCharacter.gen.cpp.obj
 0002:00006048       $SG417386                  000000018000b048     MyCharacter.gen.cpp.obj
 0002:00006060       $SG417527                  000000018000b060     MyCharacter.gen.cpp.obj
 0002:000060c8       $SG417528                  000000018000b0c8     MyCharacter.gen.cpp.obj
 0002:000060e0       $SG417531                  000000018000b0e0     MyCharacter.gen.cpp.obj
 0002:00006148       $SG417532                  000000018000b148     MyCharacter.gen.cpp.obj
 0002:00006160       $SG417537                  000000018000b160     MyCharacter.gen.cpp.obj
 0002:000061e0       $SG417538                  000000018000b1e0     MyCharacter.gen.cpp.obj
 0002:00006260       $SG417539                  000000018000b260     MyCharacter.gen.cpp.obj
 0002:000062c8       $SG417540                  000000018000b2c8     MyCharacter.gen.cpp.obj
 0002:00006470       $cppxdata$?Register@?$TClassCompiledInDefer@VAMyCharacter@@@@UEBAPEAVUClass@@XZ 000000018000b470     MyCharacter.gen.cpp.obj
 0002:000068e8       $unwind$??_H@YAXPEAX_K1P6APEAX0@Z@Z 000000018000b8e8     ECSLearning.cpp.obj
 0002:000068fc       $unwind$??3@YAXPEAX@Z      000000018000b8fc     ECSLearning.cpp.obj
 0002:00006910       $ip2state$??3@YAXPEAX@Z    000000018000b910     ECSLearning.cpp.obj
 0002:00006918       $unwind$??3@YAXPEAX_K@Z    000000018000b918     ECSLearning.cpp.obj
 0002:00006928       $ip2state$??3@YAXPEAX_K@Z  000000018000b928     ECSLearning.cpp.obj
 0002:00006930       $unwind$??_V@YAXPEAX@Z     000000018000b930     ECSLearning.cpp.obj
 0002:00006940       $ip2state$??_V@YAXPEAX@Z   000000018000b940     ECSLearning.cpp.obj
 0002:00006948       $unwind$??_V@YAXPEAX_K@Z   000000018000b948     ECSLearning.cpp.obj
 0002:00006958       $ip2state$??_V@YAXPEAX_K@Z 000000018000b958     ECSLearning.cpp.obj
 0002:00006960       $unwind$??_GIModuleInterface@@UEAAPEAXI@Z 000000018000b960     ECSLearning.cpp.obj
 0002:00006970       $stateUnwindMap$??_GIModuleInterface@@UEAAPEAXI@Z 000000018000b970     ECSLearning.cpp.obj
 0002:00006978       $ip2state$??_GIModuleInterface@@UEAAPEAXI@Z 000000018000b978     ECSLearning.cpp.obj
 0002:00006980       $unwind$??_GFDefaultModuleImpl@@UEAAPEAXI@Z 000000018000b980     ECSLearning.cpp.obj
 0002:00006990       $stateUnwindMap$??_GFDefaultModuleImpl@@UEAAPEAXI@Z 000000018000b990     ECSLearning.cpp.obj
 0002:00006998       $ip2state$??_GFDefaultModuleImpl@@UEAAPEAXI@Z 000000018000b998     ECSLearning.cpp.obj
 0002:000069a0       $unwind$??_GFDefaultGameModuleImpl@@UEAAPEAXI@Z 000000018000b9a0     ECSLearning.cpp.obj
 0002:000069b0       $stateUnwindMap$??_GFDefaultGameModuleImpl@@UEAAPEAXI@Z 000000018000b9b0     ECSLearning.cpp.obj
 0002:000069b8       $ip2state$??_GFDefaultGameModuleImpl@@UEAAPEAXI@Z 000000018000b9b8     ECSLearning.cpp.obj
 0002:000069c0       $unwind$InitializeModule   000000018000b9c0     ECSLearning.cpp.obj
 0002:000069c8       $unwind$??__EGFNameTableForDebuggerVisualizers_MT@@YAXXZ 000000018000b9c8     ECSLearning.cpp.obj
 0002:000069d0       $unwind$??__G@YAXPEAX0_K1P6APEAX00@Z@Z 000000018000b9d0     MyCharacter.cpp.obj
 0002:000069e4       $chain$0$??__G@YAXPEAX0_K1P6APEAX00@Z@Z 000000018000b9e4     MyCharacter.cpp.obj
 0002:000069f8       $chain$1$??__G@YAXPEAX0_K1P6APEAX00@Z@Z 000000018000b9f8     MyCharacter.cpp.obj
 0002:00006a08       $unwind$?GetMoveGoalOffset@INavAgentInterface@@UEBA?AUFVector@@PEAVAActor@@@Z 000000018000ba08     MyCharacter.cpp.obj
 0002:00006a10       $unwind$??2AMyCharacter@@SAPEAX_KW4EInternal@@PEAVUObject@@VFName@@W4EObjectFlags@@@Z 000000018000ba10     MyCharacter.cpp.obj
 0002:00006a18       $unwind$?__VTableCtorCaller@AMyCharacter@@SAPEAVUObject@@AEAVFVTableHelper@@@Z 000000018000ba18     MyCharacter.cpp.obj
 0002:00006a28       $unwind$?__DefaultConstructor@AMyCharacter@@SAXAEBVFObjectInitializer@@@Z 000000018000ba28     MyCharacter.cpp.obj
 0002:00006a30       $unwind$??0AMyCharacter@@QEAA@XZ 000000018000ba30     MyCharacter.cpp.obj
 0002:00006a38       $unwind$??_GAMyCharacter@@UEAAPEAXI@Z 000000018000ba38     MyCharacter.cpp.obj
 0002:00006a44       $unwind$??_EAMyCharacter@@UEAAPEAXI@Z 000000018000ba44     MyCharacter.cpp.obj
 0002:00006a60       $ip2state$??_EAMyCharacter@@UEAAPEAXI@Z 000000018000ba60     MyCharacter.cpp.obj
 0002:00006a68       $unwind$?Z_Construct_UPackage__Script_ECSLearning@@YAPEAVUPackage@@XZ 000000018000ba68     ECSLearning.init.gen.cpp.obj
 0002:00006a70       $unwind$?GetPrivateStaticClass@AMyCharacter@@CAPEAVUClass@@XZ 000000018000ba70     MyCharacter.gen.cpp.obj
 0002:00006a78       $unwind$??0AMyCharacter@@QEAA@AEAVFVTableHelper@@@Z 000000018000ba78     MyCharacter.gen.cpp.obj
 0002:00006a80       $unwind$?Z_Construct_UClass_AMyCharacter@@YAPEAVUClass@@XZ 000000018000ba80     MyCharacter.gen.cpp.obj
 0002:00006a88       $unwind$?Register@?$TClassCompiledInDefer@VAMyCharacter@@@@UEBAPEAVUClass@@XZ 000000018000ba88     MyCharacter.gen.cpp.obj
 0002:00006a98       $stateUnwindMap$?Register@?$TClassCompiledInDefer@VAMyCharacter@@@@UEBAPEAVUClass@@XZ 000000018000ba98     MyCharacter.gen.cpp.obj
 0002:00006aa0       $ip2state$?Register@?$TClassCompiledInDefer@VAMyCharacter@@@@UEBAPEAVUClass@@XZ 000000018000baa0     MyCharacter.gen.cpp.obj
 0002:00006ab0       $unwind$??__EZ_CompiledInDefer_UClass_AMyCharacter@@YAXXZ 000000018000bab0     MyCharacter.gen.cpp.obj
 0002:00006ab8       $unwind$?initialize_legacy_wide_specifiers@@YAHXZ 000000018000bab8     legacy_stdio_wide_specifiers:legacy_stdio_wide_specifiers.obj
 0002:00006ac0       $unwind$??_M@YAXPEAX_K1P6AX0@Z@Z 000000018000bac0     MSVCRT:ehvecdtr.obj
 0002:00006ae8       $unwind$?fin$0@?0???_M@YAXPEAX_K1P6AX0@Z@Z@4HA 000000018000bae8     MSVCRT:ehvecdtr.obj
 0002:00006af0       $unwind$?__ArrayUnwind@@YAXPEAX_K1P6AX0@Z@Z 000000018000baf0     MSVCRT:ehvecdtr.obj
 0002:00006b1c       $unwind$?filt$0@?0??__ArrayUnwind@@YAXPEAX_K1P6AX0@Z@Z@4HA 000000018000bb1c     MSVCRT:ehvecdtr.obj
 0002:00006b24       $unwind$?ArrayUnwindFilter@@YAHPEAU_EXCEPTION_POINTERS@@@Z 000000018000bb24     MSVCRT:ehvecdtr.obj
 0002:00006b2c       $unwind$?dllmain_crt_process_attach@@YAHQEAUHINSTANCE__@@QEAX@Z 000000018000bb2c     MSVCRT:dll_dllmain.obj
 0002:00006b68       $unwind$?fin$0@?0??dllmain_crt_process_attach@@YAHQEAUHINSTANCE__@@QEAX@Z@4HA 000000018000bb68     MSVCRT:dll_dllmain.obj
 0002:00006b70       $unwind$?dllmain_crt_process_detach@@YAH_N@Z 000000018000bb70     MSVCRT:dll_dllmain.obj
 0002:00006ba8       $unwind$?fin$0@?0??dllmain_crt_process_detach@@YAH_N@Z@4HA 000000018000bba8     MSVCRT:dll_dllmain.obj
 0002:00006bb0       $unwind$?dllmain_crt_dispatch@@YAHQEAUHINSTANCE__@@KQEAX@Z 000000018000bbb0     MSVCRT:dll_dllmain.obj
 0002:00006bb8       $unwind$?dllmain_dispatch@@YAHQEAUHINSTANCE__@@KQEAX@Z 000000018000bbb8     MSVCRT:dll_dllmain.obj
 0002:00006be0       $unwind$?filt$0@?0??dllmain_dispatch@@YAHQEAUHINSTANCE__@@KQEAX@Z@4HA 000000018000bbe0     MSVCRT:dll_dllmain.obj
 0002:00006be8       $unwind$_DllMainCRTStartup 000000018000bbe8     MSVCRT:dll_dllmain.obj
 0002:00006bf8       $unwind$__security_init_cookie 000000018000bbf8     MSVCRT:gs_support.obj
 0002:00006c04       $unwind$__get_entropy      000000018000bc04     MSVCRT:gs_support.obj
 0002:00006c0c       $unwind$DllMain            000000018000bc0c     MSVCRT:dll_dllmain_stub.obj
 0002:00006c14       $unwind$__scrt_initialize_default_local_stdio_options 000000018000bc14     MSVCRT:default_local_stdio_options.obj
 0002:00006c1c       $unwind$atexit             000000018000bc1c     MSVCRT:utility.obj
 0002:00006c24       $unwind$_onexit            000000018000bc24     MSVCRT:utility.obj
 0002:00006c2c       $unwind$__scrt_is_nonwritable_in_current_image 000000018000bc2c     MSVCRT:utility.obj
 0002:00006c4c       $unwind$__scrt_is_nonwritable_in_current_image$filt$0 000000018000bc4c     MSVCRT:utility.obj
 0002:00006c54       $unwind$__scrt_acquire_startup_lock 000000018000bc54     MSVCRT:utility.obj
 0002:00006c5c       $unwind$__scrt_release_startup_lock 000000018000bc5c     MSVCRT:utility.obj
 0002:00006c64       $unwind$__scrt_initialize_crt 000000018000bc64     MSVCRT:utility.obj
 0002:00006c6c       $unwind$__scrt_uninitialize_crt 000000018000bc6c     MSVCRT:utility.obj
 0002:00006c74       $unwind$__scrt_initialize_onexit_tables 000000018000bc74     MSVCRT:utility.obj
 0002:00006c7c       $unwind$__scrt_dllmain_exception_filter 000000018000bc7c     MSVCRT:utility.obj
 0002:00006c90       $unwind$__scrt_dllmain_before_initialize_c 000000018000bc90     MSVCRT:utility.obj
 0002:00006c98       $unwind$__scrt_dllmain_after_initialize_c 000000018000bc98     MSVCRT:utility.obj
 0002:00006ca0       $unwind$__scrt_dllmain_uninitialize_c 000000018000bca0     MSVCRT:utility.obj
 0002:00006ca8       $unwind$__scrt_dllmain_uninitialize_critical 000000018000bca8     MSVCRT:utility.obj
 0002:00006cb0       $unwind$__scrt_dllmain_crt_thread_attach 000000018000bcb0     MSVCRT:utility.obj
 0002:00006cb8       $unwind$__scrt_dllmain_crt_thread_detach 000000018000bcb8     MSVCRT:utility.obj
 0002:00006cc0       $unwind$?configure_argv@__scrt_narrow_argv_policy@@SAHXZ 000000018000bcc0     MSVCRT:utility.obj
 0002:00006cc8       $unwind$__scrt_get_show_window_mode 000000018000bcc8     MSVCRT:utility_desktop.obj
 0002:00006cd0       $unwind$__scrt_is_managed_app 000000018000bcd0     MSVCRT:utility_desktop.obj
 0002:00006cd8       $unwind$__scrt_fastfail    000000018000bcd8     MSVCRT:utility_desktop.obj
 0002:00006ce8       $unwind$__scrt_unhandled_exception_filter 000000018000bce8     MSVCRT:utility_desktop.obj
 0002:00006cf0       $unwind$_RTC_Initialize    000000018000bcf0     MSVCRT:_initsect_.obj
 0002:00006cfc       $unwind$_RTC_Terminate     000000018000bcfc     MSVCRT:_initsect_.obj
 0002:00006d08       $xdatasym                  000000018000bd08     MSVCRT:_guard_dispatch_.obj
 0002:00006d0c       $unwind$__isa_available_init 000000018000bd0c     MSVCRT:_cpu_disp_.obj
 0002:00006d20       .edata                     000000018000bd20     UE4Editor-ECSLearning-1905.suppressed.exp
 0002:00006d48       rgpv                       000000018000bd48     UE4Editor-ECSLearning-1905.suppressed.exp
 0002:00006d98       rgszName                   000000018000bd98     UE4Editor-ECSLearning-1905.suppressed.exp
 0002:00006de8       rgwOrd                     000000018000bde8     UE4Editor-ECSLearning-1905.suppressed.exp
 0002:00006e10       szName                     000000018000be10     UE4Editor-ECSLearning-1905.suppressed.exp
 0002:00006e2f       $N00001                    000000018000be2f     UE4Editor-ECSLearning-1905.suppressed.exp
 0002:00006e5b       $N00002                    000000018000be5b     UE4Editor-ECSLearning-1905.suppressed.exp
 0002:00006e74       $N00003                    000000018000be74     UE4Editor-ECSLearning-1905.suppressed.exp
 0002:00006e8d       $N00004                    000000018000be8d     UE4Editor-ECSLearning-1905.suppressed.exp
 0002:00006eb9       $N00005                    000000018000beb9     UE4Editor-ECSLearning-1905.suppressed.exp
 0002:00006f07       $N00006                    000000018000bf07     UE4Editor-ECSLearning-1905.suppressed.exp
 0002:00006f25       $N00007                    000000018000bf25     UE4Editor-ECSLearning-1905.suppressed.exp
 0002:00006f4f       $N00008                    000000018000bf4f     UE4Editor-ECSLearning-1905.suppressed.exp
 0002:00006f70       $N00009                    000000018000bf70     UE4Editor-ECSLearning-1905.suppressed.exp
 0002:00006fa6       $N00010                    000000018000bfa6     UE4Editor-ECSLearning-1905.suppressed.exp
 0002:00006fec       $N00011                    000000018000bfec     UE4Editor-ECSLearning-1905.suppressed.exp
 0002:00007018       $N00012                    000000018000c018     UE4Editor-ECSLearning-1905.suppressed.exp
 0002:00007056       $N00013                    000000018000c056     UE4Editor-ECSLearning-1905.suppressed.exp
 0002:0000707d       $N00014                    000000018000c07d     UE4Editor-ECSLearning-1905.suppressed.exp
 0002:000070b4       $N00015                    000000018000c0b4     UE4Editor-ECSLearning-1905.suppressed.exp
 0002:000070d1       $N00016                    000000018000c0d1     UE4Editor-ECSLearning-1905.suppressed.exp
 0002:00007104       $N00017                    000000018000c104     UE4Editor-ECSLearning-1905.suppressed.exp
 0002:00007142       $N00018                    000000018000c142     UE4Editor-ECSLearning-1905.suppressed.exp
 0002:00007184       $N00019                    000000018000c184     UE4Editor-ECSLearning-1905.suppressed.exp
 0002:000071cb       $N00020                    000000018000c1cb     UE4Editor-ECSLearning-1905.suppressed.exp
 0002:0000b25e       .idata$6                   000000018001025e     UE4Editor-Engine:UE4Editor-Engine.dll
 0002:0000b4fa       .idata$6                   00000001800104fa     UE4Editor-Core:UE4Editor-Core.dll
 0002:0000c6e6       .idata$6                   00000001800116e6     UE4Editor-CoreUObject:UE4Editor-CoreUObject.dll
 0002:0000c780       .idata$6                   0000000180011780     vcruntime:VCRUNTIME140.dll
 0002:0000c884       .idata$6                   0000000180011884     ucrt:api-ms-win-crt-runtime-l1-1-0.dll
 0002:0000ca0a       .idata$6                   0000000180011a0a     kernel32:KERNEL32.dll
 0003:00000000       ?COLOR_GRAY@OutputDeviceColor@@3QEB_WEB 0000000180012000     ECSLearning.cpp.obj
 0003:00000008       ?a@VectorSinConstantsSSE@@3MB 0000000180012008     ECSLearning.cpp.obj
 0003:0000000c       ?b@VectorSinConstantsSSE@@3MB 000000018001200c     ECSLearning.cpp.obj
 0003:00000010       ?COLOR_GRAY@OutputDeviceColor@@3QEB_WEB 0000000180012010     MyCharacter.cpp.obj
 0003:00000018       ?a@VectorSinConstantsSSE@@3MB 0000000180012018     MyCharacter.cpp.obj
 0003:0000001c       ?b@VectorSinConstantsSSE@@3MB 000000018001201c     MyCharacter.cpp.obj
 0003:00000020       ?InvalidLocation@FNavigationSystem@@3UFVector@@B 0000000180012020     MyCharacter.cpp.obj
 0003:00000030       ?COLOR_GRAY@OutputDeviceColor@@3QEB_WEB 0000000180012030     ECSLearning.init.gen.cpp.obj
 0003:00000038       ?a@VectorSinConstantsSSE@@3MB 0000000180012038     ECSLearning.init.gen.cpp.obj
 0003:0000003c       ?b@VectorSinConstantsSSE@@3MB 000000018001203c     ECSLearning.init.gen.cpp.obj
 0003:00000040       ?COLOR_GRAY@OutputDeviceColor@@3QEB_WEB 0000000180012040     MyCharacter.gen.cpp.obj
 0003:00000048       ?a@VectorSinConstantsSSE@@3MB 0000000180012048     MyCharacter.gen.cpp.obj
 0003:0000004c       ?b@VectorSinConstantsSSE@@3MB 000000018001204c     MyCharacter.gen.cpp.obj
 0003:00000050       ?InvalidLocation@FNavigationSystem@@3UFVector@@B 0000000180012050     MyCharacter.gen.cpp.obj
 0003:00000070       ?AutoInitializeAMyCharacter@@3U?$TClassCompiledInDefer@VAMyCharacter@@@@A 0000000180012070     MyCharacter.gen.cpp.obj
 0003:000000d0       ?PiByTwo@GlobalVectorConstants@@3T__m128@@B 00000001800120d0     ECSLearning.cpp.obj
 0003:000000e0       ?FloatMinusOneHalf@GlobalVectorConstants@@3T__m128@@B 00000001800120e0     ECSLearning.cpp.obj
 0003:000000f0       ?IntAllMask@GlobalVectorConstants@@3T__m128i@@B 00000001800120f0     ECSLearning.cpp.obj
 0003:00000100       ?TwoPi@GlobalVectorConstants@@3T__m128@@B 0000000180012100     ECSLearning.cpp.obj
 0003:00000110       ?SmallLengthThreshold@GlobalVectorConstants@@3T__m128@@B 0000000180012110     ECSLearning.cpp.obj
 0003:00000120       ?OneOverPi@GlobalVectorConstants@@3T__m128@@B 0000000180012120     ECSLearning.cpp.obj
 0003:00000130       ?AllMask@GlobalVectorConstants@@3T__m128@@B 0000000180012130     ECSLearning.cpp.obj
 0003:00000140       ?ThreshQuatNormalized@GlobalVectorConstants@@3T__m128@@B 0000000180012140     ECSLearning.cpp.obj
 0003:00000150       ?SignBit@GlobalVectorConstants@@3T__m128@@B 0000000180012150     ECSLearning.cpp.obj
 0003:00000160       ?Float360@GlobalVectorConstants@@3T__m128@@B 0000000180012160     ECSLearning.cpp.obj
 0003:00000170       ?QMULTI_SIGN_MASK0@GlobalVectorConstants@@3T__m128@@B 0000000180012170     ECSLearning.cpp.obj
 0003:00000180       ?OneOverTwoPi@GlobalVectorConstants@@3T__m128@@B 0000000180012180     ECSLearning.cpp.obj
 0003:00000190       ?DEG_TO_RAD@GlobalVectorConstants@@3T__m128@@B 0000000180012190     ECSLearning.cpp.obj
 0003:000001a0       ?RotationSignificantThreshold@GlobalVectorConstants@@3T__m128@@B 00000001800121a0     ECSLearning.cpp.obj
 0003:000001b0       ?BigNumber@GlobalVectorConstants@@3T__m128@@B 00000001800121b0     ECSLearning.cpp.obj
 0003:000001c0       ?FloatOneHundredth@GlobalVectorConstants@@3T__m128@@B 00000001800121c0     ECSLearning.cpp.obj
 0003:000001d0       ?FloatTwo@GlobalVectorConstants@@3T__m128@@B 00000001800121d0     ECSLearning.cpp.obj
 0003:000001e0       ?Float0001@GlobalVectorConstants@@3T__m128@@B 00000001800121e0     ECSLearning.cpp.obj
 0003:00000200       ?FloatAlmostTwo@GlobalVectorConstants@@3T__m128@@B 0000000180012200     ECSLearning.cpp.obj
 0003:00000210       ?QMULTI_SIGN_MASK2@GlobalVectorConstants@@3T__m128@@B 0000000180012210     ECSLearning.cpp.obj
 0003:00000220       ?SignMask@GlobalVectorConstants@@3T__m128@@B 0000000180012220     ECSLearning.cpp.obj
 0003:00000230       ?FloatMinus1_111@GlobalVectorConstants@@3T__m128@@B 0000000180012230     ECSLearning.cpp.obj
 0003:00000240       ?QMULTI_SIGN_MASK1@GlobalVectorConstants@@3T__m128@@B 0000000180012240     ECSLearning.cpp.obj
 0003:00000250       ?IntMinusOne@GlobalVectorConstants@@3T__m128i@@B 0000000180012250     ECSLearning.cpp.obj
 0003:00000260       ?AnimWeightThreshold@GlobalVectorConstants@@3T__m128@@B 0000000180012260     ECSLearning.cpp.obj
 0003:00000270       ?FloatOneHalf@GlobalVectorConstants@@3T__m128@@B 0000000180012270     ECSLearning.cpp.obj
 0003:00000280       ?FloatZero@GlobalVectorConstants@@3T__m128@@B 0000000180012280     ECSLearning.cpp.obj
 0003:00000290       ?B@VectorSinConstantsSSE@@3T__m128@@B 0000000180012290     ECSLearning.cpp.obj
 0003:000002a0       ?Float255@GlobalVectorConstants@@3T__m128@@B 00000001800122a0     ECSLearning.cpp.obj
 0003:000002b0       ?Float127@GlobalVectorConstants@@3T__m128@@B 00000001800122b0     ECSLearning.cpp.obj
 0003:000002c0       ?QINV_SIGN_MASK@GlobalVectorConstants@@3T__m128@@B 00000001800122c0     ECSLearning.cpp.obj
 0003:000002d0       ?DEG_TO_RAD_HALF@GlobalVectorConstants@@3T__m128@@B 00000001800122d0     ECSLearning.cpp.obj
 0003:000002e0       ?FloatOne@GlobalVectorConstants@@3T__m128@@B 00000001800122e0     ECSLearning.cpp.obj
 0003:000002f0       ?A@VectorSinConstantsSSE@@3T__m128@@B 00000001800122f0     ECSLearning.cpp.obj
 0003:00000300       ?IntSignBit@GlobalVectorConstants@@3T__m128i@@B 0000000180012300     ECSLearning.cpp.obj
 0003:00000310       ?FloatMinusOne@GlobalVectorConstants@@3T__m128@@B 0000000180012310     ECSLearning.cpp.obj
 0003:00000320       ?FloatNeg127@GlobalVectorConstants@@3T__m128@@B 0000000180012320     ECSLearning.cpp.obj
 0003:00000330       ?Float111_Minus1@GlobalVectorConstants@@3T__m128@@B 0000000180012330     ECSLearning.cpp.obj
 0003:00000340       ?XYZMask@GlobalVectorConstants@@3T__m128@@B 0000000180012340     ECSLearning.cpp.obj
 0003:00000350       ?KindaSmallNumber@GlobalVectorConstants@@3T__m128@@B 0000000180012350     ECSLearning.cpp.obj
 0003:00000360       ?IntOne@GlobalVectorConstants@@3T__m128i@@B 0000000180012360     ECSLearning.cpp.obj
 0003:00000370       ?SmallNumber@GlobalVectorConstants@@3T__m128@@B 0000000180012370     ECSLearning.cpp.obj
 0003:00000380       ?PiByFour@GlobalVectorConstants@@3T__m128@@B 0000000180012380     ECSLearning.cpp.obj
 0003:00000390       ?Pi@GlobalVectorConstants@@3T__m128@@B 0000000180012390     ECSLearning.cpp.obj
 0003:000003a0       ?FloatInfinity@GlobalVectorConstants@@3T__m128@@B 00000001800123a0     ECSLearning.cpp.obj
 0003:000003b0       ?IntZero@GlobalVectorConstants@@3T__m128i@@B 00000001800123b0     ECSLearning.cpp.obj
 0003:000003c0       ?IntSignMask@GlobalVectorConstants@@3T__m128i@@B 00000001800123c0     ECSLearning.cpp.obj
 0003:000003d0       ?RAD_TO_DEG@GlobalVectorConstants@@3T__m128@@B 00000001800123d0     ECSLearning.cpp.obj
 0003:000003e0       ?Float180@GlobalVectorConstants@@3T__m128@@B 00000001800123e0     ECSLearning.cpp.obj
 0003:000003f0       ?PiByTwo@GlobalVectorConstants@@3T__m128@@B 00000001800123f0     MyCharacter.cpp.obj
 0003:00000400       ?FloatMinusOneHalf@GlobalVectorConstants@@3T__m128@@B 0000000180012400     MyCharacter.cpp.obj
 0003:00000410       ?IntAllMask@GlobalVectorConstants@@3T__m128i@@B 0000000180012410     MyCharacter.cpp.obj
 0003:00000420       ?TwoPi@GlobalVectorConstants@@3T__m128@@B 0000000180012420     MyCharacter.cpp.obj
 0003:00000430       ?SmallLengthThreshold@GlobalVectorConstants@@3T__m128@@B 0000000180012430     MyCharacter.cpp.obj
 0003:00000440       ?OneOverPi@GlobalVectorConstants@@3T__m128@@B 0000000180012440     MyCharacter.cpp.obj
 0003:00000450       ?AllMask@GlobalVectorConstants@@3T__m128@@B 0000000180012450     MyCharacter.cpp.obj
 0003:00000460       ?ThreshQuatNormalized@GlobalVectorConstants@@3T__m128@@B 0000000180012460     MyCharacter.cpp.obj
 0003:00000470       ?SignBit@GlobalVectorConstants@@3T__m128@@B 0000000180012470     MyCharacter.cpp.obj
 0003:00000480       ?Float360@GlobalVectorConstants@@3T__m128@@B 0000000180012480     MyCharacter.cpp.obj
 0003:00000490       ?QMULTI_SIGN_MASK0@GlobalVectorConstants@@3T__m128@@B 0000000180012490     MyCharacter.cpp.obj
 0003:000004a0       ?OneOverTwoPi@GlobalVectorConstants@@3T__m128@@B 00000001800124a0     MyCharacter.cpp.obj
 0003:000004b0       ?DEG_TO_RAD@GlobalVectorConstants@@3T__m128@@B 00000001800124b0     MyCharacter.cpp.obj
 0003:000004c0       ?RotationSignificantThreshold@GlobalVectorConstants@@3T__m128@@B 00000001800124c0     MyCharacter.cpp.obj
 0003:000004d0       ?BigNumber@GlobalVectorConstants@@3T__m128@@B 00000001800124d0     MyCharacter.cpp.obj
 0003:000004e0       ?FloatOneHundredth@GlobalVectorConstants@@3T__m128@@B 00000001800124e0     MyCharacter.cpp.obj
 0003:000004f0       ?FloatTwo@GlobalVectorConstants@@3T__m128@@B 00000001800124f0     MyCharacter.cpp.obj
 0003:00000500       ?Float0001@GlobalVectorConstants@@3T__m128@@B 0000000180012500     MyCharacter.cpp.obj
 0003:00000510       ?FloatAlmostTwo@GlobalVectorConstants@@3T__m128@@B 0000000180012510     MyCharacter.cpp.obj
 0003:00000520       ?QMULTI_SIGN_MASK2@GlobalVectorConstants@@3T__m128@@B 0000000180012520     MyCharacter.cpp.obj
 0003:00000530       ?SignMask@GlobalVectorConstants@@3T__m128@@B 0000000180012530     MyCharacter.cpp.obj
 0003:00000540       ?FloatMinus1_111@GlobalVectorConstants@@3T__m128@@B 0000000180012540     MyCharacter.cpp.obj
 0003:00000550       ?QMULTI_SIGN_MASK1@GlobalVectorConstants@@3T__m128@@B 0000000180012550     MyCharacter.cpp.obj
 0003:00000560       ?IntMinusOne@GlobalVectorConstants@@3T__m128i@@B 0000000180012560     MyCharacter.cpp.obj
 0003:00000570       ?AnimWeightThreshold@GlobalVectorConstants@@3T__m128@@B 0000000180012570     MyCharacter.cpp.obj
 0003:00000580       ?FloatOneHalf@GlobalVectorConstants@@3T__m128@@B 0000000180012580     MyCharacter.cpp.obj
 0003:00000590       ?FloatZero@GlobalVectorConstants@@3T__m128@@B 0000000180012590     MyCharacter.cpp.obj
 0003:000005a0       ?B@VectorSinConstantsSSE@@3T__m128@@B 00000001800125a0     MyCharacter.cpp.obj
 0003:000005b0       ?Float255@GlobalVectorConstants@@3T__m128@@B 00000001800125b0     MyCharacter.cpp.obj
 0003:000005c0       ?Float127@GlobalVectorConstants@@3T__m128@@B 00000001800125c0     MyCharacter.cpp.obj
 0003:000005d0       ?InvalidBoundingBox@FNavigationSystem@@3UFBox@@B 00000001800125d0     MyCharacter.cpp.obj
 0003:000005f0       ?QINV_SIGN_MASK@GlobalVectorConstants@@3T__m128@@B 00000001800125f0     MyCharacter.cpp.obj
 0003:00000600       ?DEG_TO_RAD_HALF@GlobalVectorConstants@@3T__m128@@B 0000000180012600     MyCharacter.cpp.obj
 0003:00000610       ?FloatOne@GlobalVectorConstants@@3T__m128@@B 0000000180012610     MyCharacter.cpp.obj
 0003:00000620       ?A@VectorSinConstantsSSE@@3T__m128@@B 0000000180012620     MyCharacter.cpp.obj
 0003:00000630       ?IntSignBit@GlobalVectorConstants@@3T__m128i@@B 0000000180012630     MyCharacter.cpp.obj
 0003:00000640       ?FloatMinusOne@GlobalVectorConstants@@3T__m128@@B 0000000180012640     MyCharacter.cpp.obj
 0003:00000650       ?FloatNeg127@GlobalVectorConstants@@3T__m128@@B 0000000180012650     MyCharacter.cpp.obj
 0003:00000660       ?Float111_Minus1@GlobalVectorConstants@@3T__m128@@B 0000000180012660     MyCharacter.cpp.obj
 0003:00000670       ?XYZMask@GlobalVectorConstants@@3T__m128@@B 0000000180012670     MyCharacter.cpp.obj
 0003:00000680       ?KindaSmallNumber@GlobalVectorConstants@@3T__m128@@B 0000000180012680     MyCharacter.cpp.obj
 0003:00000690       ?IntOne@GlobalVectorConstants@@3T__m128i@@B 0000000180012690     MyCharacter.cpp.obj
 0003:000006a0       ?SmallNumber@GlobalVectorConstants@@3T__m128@@B 00000001800126a0     MyCharacter.cpp.obj
 0003:000006b0       ?PiByFour@GlobalVectorConstants@@3T__m128@@B 00000001800126b0     MyCharacter.cpp.obj
 0003:000006c0       ?Pi@GlobalVectorConstants@@3T__m128@@B 00000001800126c0     MyCharacter.cpp.obj
 0003:000006d0       ?FloatInfinity@GlobalVectorConstants@@3T__m128@@B 00000001800126d0     MyCharacter.cpp.obj
 0003:000006e0       ?IntZero@GlobalVectorConstants@@3T__m128i@@B 00000001800126e0     MyCharacter.cpp.obj
 0003:000006f0       ?IntSignMask@GlobalVectorConstants@@3T__m128i@@B 00000001800126f0     MyCharacter.cpp.obj
 0003:00000700       ?RAD_TO_DEG@GlobalVectorConstants@@3T__m128@@B 0000000180012700     MyCharacter.cpp.obj
 0003:00000710       ?Float180@GlobalVectorConstants@@3T__m128@@B 0000000180012710     MyCharacter.cpp.obj
 0003:00000720       ?PiByTwo@GlobalVectorConstants@@3T__m128@@B 0000000180012720     ECSLearning.init.gen.cpp.obj
 0003:00000730       ?FloatMinusOneHalf@GlobalVectorConstants@@3T__m128@@B 0000000180012730     ECSLearning.init.gen.cpp.obj
 0003:00000740       ?IntAllMask@GlobalVectorConstants@@3T__m128i@@B 0000000180012740     ECSLearning.init.gen.cpp.obj
 0003:00000750       ?TwoPi@GlobalVectorConstants@@3T__m128@@B 0000000180012750     ECSLearning.init.gen.cpp.obj
 0003:00000760       ?SmallLengthThreshold@GlobalVectorConstants@@3T__m128@@B 0000000180012760     ECSLearning.init.gen.cpp.obj
 0003:00000770       ?OneOverPi@GlobalVectorConstants@@3T__m128@@B 0000000180012770     ECSLearning.init.gen.cpp.obj
 0003:00000780       ?AllMask@GlobalVectorConstants@@3T__m128@@B 0000000180012780     ECSLearning.init.gen.cpp.obj
 0003:00000790       ?ThreshQuatNormalized@GlobalVectorConstants@@3T__m128@@B 0000000180012790     ECSLearning.init.gen.cpp.obj
 0003:000007a0       ?SignBit@GlobalVectorConstants@@3T__m128@@B 00000001800127a0     ECSLearning.init.gen.cpp.obj
 0003:000007b0       ?Float360@GlobalVectorConstants@@3T__m128@@B 00000001800127b0     ECSLearning.init.gen.cpp.obj
 0003:000007c0       ?QMULTI_SIGN_MASK0@GlobalVectorConstants@@3T__m128@@B 00000001800127c0     ECSLearning.init.gen.cpp.obj
 0003:000007d0       ?OneOverTwoPi@GlobalVectorConstants@@3T__m128@@B 00000001800127d0     ECSLearning.init.gen.cpp.obj
 0003:000007e0       ?DEG_TO_RAD@GlobalVectorConstants@@3T__m128@@B 00000001800127e0     ECSLearning.init.gen.cpp.obj
 0003:000007f0       ?RotationSignificantThreshold@GlobalVectorConstants@@3T__m128@@B 00000001800127f0     ECSLearning.init.gen.cpp.obj
 0003:00000800       ?BigNumber@GlobalVectorConstants@@3T__m128@@B 0000000180012800     ECSLearning.init.gen.cpp.obj
 0003:00000810       ?FloatOneHundredth@GlobalVectorConstants@@3T__m128@@B 0000000180012810     ECSLearning.init.gen.cpp.obj
 0003:00000820       ?FloatTwo@GlobalVectorConstants@@3T__m128@@B 0000000180012820     ECSLearning.init.gen.cpp.obj
 0003:00000830       ?Float0001@GlobalVectorConstants@@3T__m128@@B 0000000180012830     ECSLearning.init.gen.cpp.obj
 0003:00000840       ?FloatAlmostTwo@GlobalVectorConstants@@3T__m128@@B 0000000180012840     ECSLearning.init.gen.cpp.obj
 0003:00000850       ?QMULTI_SIGN_MASK2@GlobalVectorConstants@@3T__m128@@B 0000000180012850     ECSLearning.init.gen.cpp.obj
 0003:00000860       ?SignMask@GlobalVectorConstants@@3T__m128@@B 0000000180012860     ECSLearning.init.gen.cpp.obj
 0003:00000870       ?FloatMinus1_111@GlobalVectorConstants@@3T__m128@@B 0000000180012870     ECSLearning.init.gen.cpp.obj
 0003:00000880       ?QMULTI_SIGN_MASK1@GlobalVectorConstants@@3T__m128@@B 0000000180012880     ECSLearning.init.gen.cpp.obj
 0003:00000890       ?IntMinusOne@GlobalVectorConstants@@3T__m128i@@B 0000000180012890     ECSLearning.init.gen.cpp.obj
 0003:000008a0       ?AnimWeightThreshold@GlobalVectorConstants@@3T__m128@@B 00000001800128a0     ECSLearning.init.gen.cpp.obj
 0003:000008b0       ?FloatOneHalf@GlobalVectorConstants@@3T__m128@@B 00000001800128b0     ECSLearning.init.gen.cpp.obj
 0003:000008c0       ?FloatZero@GlobalVectorConstants@@3T__m128@@B 00000001800128c0     ECSLearning.init.gen.cpp.obj
 0003:000008d0       ?B@VectorSinConstantsSSE@@3T__m128@@B 00000001800128d0     ECSLearning.init.gen.cpp.obj
 0003:000008e0       ?Float255@GlobalVectorConstants@@3T__m128@@B 00000001800128e0     ECSLearning.init.gen.cpp.obj
 0003:000008f0       ?Float127@GlobalVectorConstants@@3T__m128@@B 00000001800128f0     ECSLearning.init.gen.cpp.obj
 0003:00000900       ?QINV_SIGN_MASK@GlobalVectorConstants@@3T__m128@@B 0000000180012900     ECSLearning.init.gen.cpp.obj
 0003:00000910       ?DEG_TO_RAD_HALF@GlobalVectorConstants@@3T__m128@@B 0000000180012910     ECSLearning.init.gen.cpp.obj
 0003:00000920       ?FloatOne@GlobalVectorConstants@@3T__m128@@B 0000000180012920     ECSLearning.init.gen.cpp.obj
 0003:00000930       ?A@VectorSinConstantsSSE@@3T__m128@@B 0000000180012930     ECSLearning.init.gen.cpp.obj
 0003:00000940       ?IntSignBit@GlobalVectorConstants@@3T__m128i@@B 0000000180012940     ECSLearning.init.gen.cpp.obj
 0003:00000950       ?FloatMinusOne@GlobalVectorConstants@@3T__m128@@B 0000000180012950     ECSLearning.init.gen.cpp.obj
 0003:00000960       ?FloatNeg127@GlobalVectorConstants@@3T__m128@@B 0000000180012960     ECSLearning.init.gen.cpp.obj
 0003:00000970       ?Float111_Minus1@GlobalVectorConstants@@3T__m128@@B 0000000180012970     ECSLearning.init.gen.cpp.obj
 0003:00000980       ?XYZMask@GlobalVectorConstants@@3T__m128@@B 0000000180012980     ECSLearning.init.gen.cpp.obj
 0003:00000990       ?KindaSmallNumber@GlobalVectorConstants@@3T__m128@@B 0000000180012990     ECSLearning.init.gen.cpp.obj
 0003:000009a0       ?IntOne@GlobalVectorConstants@@3T__m128i@@B 00000001800129a0     ECSLearning.init.gen.cpp.obj
 0003:000009b0       ?SmallNumber@GlobalVectorConstants@@3T__m128@@B 00000001800129b0     ECSLearning.init.gen.cpp.obj
 0003:000009c0       ?PiByFour@GlobalVectorConstants@@3T__m128@@B 00000001800129c0     ECSLearning.init.gen.cpp.obj
 0003:000009d0       ?Pi@GlobalVectorConstants@@3T__m128@@B 00000001800129d0     ECSLearning.init.gen.cpp.obj
 0003:000009e0       ?FloatInfinity@GlobalVectorConstants@@3T__m128@@B 00000001800129e0     ECSLearning.init.gen.cpp.obj
 0003:000009f0       ?IntZero@GlobalVectorConstants@@3T__m128i@@B 00000001800129f0     ECSLearning.init.gen.cpp.obj
 0003:00000a00       ?IntSignMask@GlobalVectorConstants@@3T__m128i@@B 0000000180012a00     ECSLearning.init.gen.cpp.obj
 0003:00000a10       ?RAD_TO_DEG@GlobalVectorConstants@@3T__m128@@B 0000000180012a10     ECSLearning.init.gen.cpp.obj
 0003:00000a20       ?Float180@GlobalVectorConstants@@3T__m128@@B 0000000180012a20     ECSLearning.init.gen.cpp.obj
 0003:00000a30       ?ReturnPackage@?1??Z_Construct_UPackage__Script_ECSLearning@@YAPEAVUPackage@@XZ@4PEAV2@EA 0000000180012a30     ECSLearning.init.gen.cpp.obj
 0003:00000a40       ?PiByTwo@GlobalVectorConstants@@3T__m128@@B 0000000180012a40     MyCharacter.gen.cpp.obj
 0003:00000a50       ?FloatMinusOneHalf@GlobalVectorConstants@@3T__m128@@B 0000000180012a50     MyCharacter.gen.cpp.obj
 0003:00000a60       ?IntAllMask@GlobalVectorConstants@@3T__m128i@@B 0000000180012a60     MyCharacter.gen.cpp.obj
 0003:00000a70       ?TwoPi@GlobalVectorConstants@@3T__m128@@B 0000000180012a70     MyCharacter.gen.cpp.obj
 0003:00000a80       ?SmallLengthThreshold@GlobalVectorConstants@@3T__m128@@B 0000000180012a80     MyCharacter.gen.cpp.obj
 0003:00000a90       ?OneOverPi@GlobalVectorConstants@@3T__m128@@B 0000000180012a90     MyCharacter.gen.cpp.obj
 0003:00000aa0       ?AllMask@GlobalVectorConstants@@3T__m128@@B 0000000180012aa0     MyCharacter.gen.cpp.obj
 0003:00000ab0       ?ThreshQuatNormalized@GlobalVectorConstants@@3T__m128@@B 0000000180012ab0     MyCharacter.gen.cpp.obj
 0003:00000ac0       ?SignBit@GlobalVectorConstants@@3T__m128@@B 0000000180012ac0     MyCharacter.gen.cpp.obj
 0003:00000ad0       ?Float360@GlobalVectorConstants@@3T__m128@@B 0000000180012ad0     MyCharacter.gen.cpp.obj
 0003:00000ae0       ?QMULTI_SIGN_MASK0@GlobalVectorConstants@@3T__m128@@B 0000000180012ae0     MyCharacter.gen.cpp.obj
 0003:00000af0       ?OneOverTwoPi@GlobalVectorConstants@@3T__m128@@B 0000000180012af0     MyCharacter.gen.cpp.obj
 0003:00000b00       ?DEG_TO_RAD@GlobalVectorConstants@@3T__m128@@B 0000000180012b00     MyCharacter.gen.cpp.obj
 0003:00000b10       ?RotationSignificantThreshold@GlobalVectorConstants@@3T__m128@@B 0000000180012b10     MyCharacter.gen.cpp.obj
 0003:00000b20       ?BigNumber@GlobalVectorConstants@@3T__m128@@B 0000000180012b20     MyCharacter.gen.cpp.obj
 0003:00000b30       ?FloatOneHundredth@GlobalVectorConstants@@3T__m128@@B 0000000180012b30     MyCharacter.gen.cpp.obj
 0003:00000b40       ?FloatTwo@GlobalVectorConstants@@3T__m128@@B 0000000180012b40     MyCharacter.gen.cpp.obj
 0003:00000b50       ?Float0001@GlobalVectorConstants@@3T__m128@@B 0000000180012b50     MyCharacter.gen.cpp.obj
 0003:00000b60       ?FloatAlmostTwo@GlobalVectorConstants@@3T__m128@@B 0000000180012b60     MyCharacter.gen.cpp.obj
 0003:00000b70       ?QMULTI_SIGN_MASK2@GlobalVectorConstants@@3T__m128@@B 0000000180012b70     MyCharacter.gen.cpp.obj
 0003:00000b80       ?SignMask@GlobalVectorConstants@@3T__m128@@B 0000000180012b80     MyCharacter.gen.cpp.obj
 0003:00000b90       ?FloatMinus1_111@GlobalVectorConstants@@3T__m128@@B 0000000180012b90     MyCharacter.gen.cpp.obj
 0003:00000ba0       ?QMULTI_SIGN_MASK1@GlobalVectorConstants@@3T__m128@@B 0000000180012ba0     MyCharacter.gen.cpp.obj
 0003:00000bb0       ?IntMinusOne@GlobalVectorConstants@@3T__m128i@@B 0000000180012bb0     MyCharacter.gen.cpp.obj
 0003:00000bc0       ?AnimWeightThreshold@GlobalVectorConstants@@3T__m128@@B 0000000180012bc0     MyCharacter.gen.cpp.obj
 0003:00000bd0       ?FloatOneHalf@GlobalVectorConstants@@3T__m128@@B 0000000180012bd0     MyCharacter.gen.cpp.obj
 0003:00000be0       ?FloatZero@GlobalVectorConstants@@3T__m128@@B 0000000180012be0     MyCharacter.gen.cpp.obj
 0003:00000bf0       ?B@VectorSinConstantsSSE@@3T__m128@@B 0000000180012bf0     MyCharacter.gen.cpp.obj
 0003:00000c00       ?Float255@GlobalVectorConstants@@3T__m128@@B 0000000180012c00     MyCharacter.gen.cpp.obj
 0003:00000c10       ?Float127@GlobalVectorConstants@@3T__m128@@B 0000000180012c10     MyCharacter.gen.cpp.obj
 0003:00000c20       ?InvalidBoundingBox@FNavigationSystem@@3UFBox@@B 0000000180012c20     MyCharacter.gen.cpp.obj
 0003:00000c3c       ?Z_CompiledInDefer_UClass_AMyCharacter@@3UFCompiledInDefer@@A 0000000180012c3c     MyCharacter.gen.cpp.obj
 0003:00000c40       ?QINV_SIGN_MASK@GlobalVectorConstants@@3T__m128@@B 0000000180012c40     MyCharacter.gen.cpp.obj
 0003:00000c50       ?DEG_TO_RAD_HALF@GlobalVectorConstants@@3T__m128@@B 0000000180012c50     MyCharacter.gen.cpp.obj
 0003:00000c60       ?FloatOne@GlobalVectorConstants@@3T__m128@@B 0000000180012c60     MyCharacter.gen.cpp.obj
 0003:00000c70       ?A@VectorSinConstantsSSE@@3T__m128@@B 0000000180012c70     MyCharacter.gen.cpp.obj
 0003:00000c80       ?IntSignBit@GlobalVectorConstants@@3T__m128i@@B 0000000180012c80     MyCharacter.gen.cpp.obj
 0003:00000c90       ?FloatMinusOne@GlobalVectorConstants@@3T__m128@@B 0000000180012c90     MyCharacter.gen.cpp.obj
 0003:00000ca0       ?FloatNeg127@GlobalVectorConstants@@3T__m128@@B 0000000180012ca0     MyCharacter.gen.cpp.obj
 0003:00000cb0       ?Float111_Minus1@GlobalVectorConstants@@3T__m128@@B 0000000180012cb0     MyCharacter.gen.cpp.obj
 0003:00000cc0       ?XYZMask@GlobalVectorConstants@@3T__m128@@B 0000000180012cc0     MyCharacter.gen.cpp.obj
 0003:00000cd0       ?KindaSmallNumber@GlobalVectorConstants@@3T__m128@@B 0000000180012cd0     MyCharacter.gen.cpp.obj
 0003:00000ce0       ?IntOne@GlobalVectorConstants@@3T__m128i@@B 0000000180012ce0     MyCharacter.gen.cpp.obj
 0003:00000cf0       ?SmallNumber@GlobalVectorConstants@@3T__m128@@B 0000000180012cf0     MyCharacter.gen.cpp.obj
 0003:00000d00       ?PiByFour@GlobalVectorConstants@@3T__m128@@B 0000000180012d00     MyCharacter.gen.cpp.obj
 0003:00000d10       ?Pi@GlobalVectorConstants@@3T__m128@@B 0000000180012d10     MyCharacter.gen.cpp.obj
 0003:00000d20       ?FloatInfinity@GlobalVectorConstants@@3T__m128@@B 0000000180012d20     MyCharacter.gen.cpp.obj
 0003:00000d30       ?IntZero@GlobalVectorConstants@@3T__m128i@@B 0000000180012d30     MyCharacter.gen.cpp.obj
 0003:00000d40       ?IntSignMask@GlobalVectorConstants@@3T__m128i@@B 0000000180012d40     MyCharacter.gen.cpp.obj
 0003:00000d50       ?RAD_TO_DEG@GlobalVectorConstants@@3T__m128@@B 0000000180012d50     MyCharacter.gen.cpp.obj
 0003:00000d60       ?Float180@GlobalVectorConstants@@3T__m128@@B 0000000180012d60     MyCharacter.gen.cpp.obj
 0003:00000d70       ?OuterClass@?1??Z_Construct_UClass_AMyCharacter@@YAPEAVUClass@@XZ@4PEAV2@EA 0000000180012d70     MyCharacter.gen.cpp.obj
 0003:00000d78       ?PrivateStaticClass@?1??GetPrivateStaticClass@AMyCharacter@@CAPEAVUClass@@XZ@4PEAV3@EA 0000000180012d78     MyCharacter.gen.cpp.obj
 0003:00000d90       ?__proc_attached@@3HA      0000000180012d90     MSVCRT:dll_dllmain.obj
 0003:00000dc0       ?is_initialized_as_dll@@3_NA 0000000180012dc0     MSVCRT:utility.obj
 0003:00000dc1       ?module_local_atexit_table_initialized@@3_NA 0000000180012dc1     MSVCRT:utility.obj
 0003:00000dc8       ?module_local_atexit_table@@3U_onexit_table_t@@A 0000000180012dc8     MSVCRT:utility.obj
 0003:00000de0       ?module_local_at_quick_exit_table@@3U_onexit_table_t@@A 0000000180012de0     MSVCRT:utility.obj
 0004:00000000       $pdata$??_H@YAXPEAX_K1P6APEAX0@Z@Z 0000000180013000     ECSLearning.cpp.obj
 0004:0000000c       $pdata$??3@YAXPEAX@Z       000000018001300c     ECSLearning.cpp.obj
 0004:00000018       $pdata$??3@YAXPEAX_K@Z     0000000180013018     ECSLearning.cpp.obj
 0004:00000024       $pdata$??_V@YAXPEAX@Z      0000000180013024     ECSLearning.cpp.obj
 0004:00000030       $pdata$??_V@YAXPEAX_K@Z    0000000180013030     ECSLearning.cpp.obj
 0004:0000003c       $pdata$??_GIModuleInterface@@UEAAPEAXI@Z 000000018001303c     ECSLearning.cpp.obj
 0004:00000048       $pdata$??_GFDefaultModuleImpl@@UEAAPEAXI@Z 0000000180013048     ECSLearning.cpp.obj
 0004:00000054       $pdata$??_GFDefaultGameModuleImpl@@UEAAPEAXI@Z 0000000180013054     ECSLearning.cpp.obj
 0004:00000060       $pdata$InitializeModule    0000000180013060     ECSLearning.cpp.obj
 0004:0000006c       $pdata$??__EGFNameTableForDebuggerVisualizers_MT@@YAXXZ 000000018001306c     ECSLearning.cpp.obj
 0004:00000078       $pdata$??__G@YAXPEAX0_K1P6APEAX00@Z@Z 0000000180013078     MyCharacter.cpp.obj
 0004:00000084       $pdata$0$??__G@YAXPEAX0_K1P6APEAX00@Z@Z 0000000180013084     MyCharacter.cpp.obj
 0004:00000090       $pdata$1$??__G@YAXPEAX0_K1P6APEAX00@Z@Z 0000000180013090     MyCharacter.cpp.obj
 0004:0000009c       $pdata$?GetMoveGoalOffset@INavAgentInterface@@UEBA?AUFVector@@PEAVAActor@@@Z 000000018001309c     MyCharacter.cpp.obj
 0004:000000a8       $pdata$??2AMyCharacter@@SAPEAX_KW4EInternal@@PEAVUObject@@VFName@@W4EObjectFlags@@@Z 00000001800130a8     MyCharacter.cpp.obj
 0004:000000b4       $pdata$?__VTableCtorCaller@AMyCharacter@@SAPEAVUObject@@AEAVFVTableHelper@@@Z 00000001800130b4     MyCharacter.cpp.obj
 0004:000000c0       $pdata$?__DefaultConstructor@AMyCharacter@@SAXAEBVFObjectInitializer@@@Z 00000001800130c0     MyCharacter.cpp.obj
 0004:000000cc       $pdata$??0AMyCharacter@@QEAA@XZ 00000001800130cc     MyCharacter.cpp.obj
 0004:000000d8       $pdata$??_GAMyCharacter@@UEAAPEAXI@Z 00000001800130d8     MyCharacter.cpp.obj
 0004:000000e4       $pdata$??_EAMyCharacter@@UEAAPEAXI@Z 00000001800130e4     MyCharacter.cpp.obj
 0004:000000f0       $pdata$?Z_Construct_UPackage__Script_ECSLearning@@YAPEAVUPackage@@XZ 00000001800130f0     ECSLearning.init.gen.cpp.obj
 0004:000000fc       $pdata$?GetPrivateStaticClass@AMyCharacter@@CAPEAVUClass@@XZ 00000001800130fc     MyCharacter.gen.cpp.obj
 0004:00000108       $pdata$??0AMyCharacter@@QEAA@AEAVFVTableHelper@@@Z 0000000180013108     MyCharacter.gen.cpp.obj
 0004:00000114       $pdata$?Z_Construct_UClass_AMyCharacter@@YAPEAVUClass@@XZ 0000000180013114     MyCharacter.gen.cpp.obj
 0004:00000120       $pdata$?Register@?$TClassCompiledInDefer@VAMyCharacter@@@@UEBAPEAVUClass@@XZ 0000000180013120     MyCharacter.gen.cpp.obj
 0004:0000012c       $pdata$??__EZ_CompiledInDefer_UClass_AMyCharacter@@YAXXZ 000000018001312c     MyCharacter.gen.cpp.obj
 0004:00000138       $pdata$?initialize_legacy_wide_specifiers@@YAHXZ 0000000180013138     legacy_stdio_wide_specifiers:legacy_stdio_wide_specifiers.obj
 0004:00000144       $pdata$??_M@YAXPEAX_K1P6AX0@Z@Z 0000000180013144     MSVCRT:ehvecdtr.obj
 0004:00000150       $pdata$?fin$0@?0???_M@YAXPEAX_K1P6AX0@Z@Z@4HA 0000000180013150     MSVCRT:ehvecdtr.obj
 0004:0000015c       $pdata$?__ArrayUnwind@@YAXPEAX_K1P6AX0@Z@Z 000000018001315c     MSVCRT:ehvecdtr.obj
 0004:00000168       $pdata$?filt$0@?0??__ArrayUnwind@@YAXPEAX_K1P6AX0@Z@Z@4HA 0000000180013168     MSVCRT:ehvecdtr.obj
 0004:00000174       $pdata$?ArrayUnwindFilter@@YAHPEAU_EXCEPTION_POINTERS@@@Z 0000000180013174     MSVCRT:ehvecdtr.obj
 0004:00000180       $pdata$?dllmain_crt_process_attach@@YAHQEAUHINSTANCE__@@QEAX@Z 0000000180013180     MSVCRT:dll_dllmain.obj
 0004:0000018c       $pdata$?fin$0@?0??dllmain_crt_process_attach@@YAHQEAUHINSTANCE__@@QEAX@Z@4HA 000000018001318c     MSVCRT:dll_dllmain.obj
 0004:00000198       $pdata$?dllmain_crt_process_detach@@YAH_N@Z 0000000180013198     MSVCRT:dll_dllmain.obj
 0004:000001a4       $pdata$?fin$0@?0??dllmain_crt_process_detach@@YAH_N@Z@4HA 00000001800131a4     MSVCRT:dll_dllmain.obj
 0004:000001b0       $pdata$?dllmain_crt_dispatch@@YAHQEAUHINSTANCE__@@KQEAX@Z 00000001800131b0     MSVCRT:dll_dllmain.obj
 0004:000001bc       $pdata$?dllmain_dispatch@@YAHQEAUHINSTANCE__@@KQEAX@Z 00000001800131bc     MSVCRT:dll_dllmain.obj
 0004:000001c8       $pdata$?filt$0@?0??dllmain_dispatch@@YAHQEAUHINSTANCE__@@KQEAX@Z@4HA 00000001800131c8     MSVCRT:dll_dllmain.obj
 0004:000001d4       $pdata$_DllMainCRTStartup  00000001800131d4     MSVCRT:dll_dllmain.obj
 0004:000001e0       $pdata$__security_init_cookie 00000001800131e0     MSVCRT:gs_support.obj
 0004:000001ec       $pdata$__get_entropy       00000001800131ec     MSVCRT:gs_support.obj
 0004:000001f8       $pdata$DllMain             00000001800131f8     MSVCRT:dll_dllmain_stub.obj
 0004:00000204       $pdata$__scrt_initialize_default_local_stdio_options 0000000180013204     MSVCRT:default_local_stdio_options.obj
 0004:00000210       $pdata$atexit              0000000180013210     MSVCRT:utility.obj
 0004:0000021c       $pdata$_onexit             000000018001321c     MSVCRT:utility.obj
 0004:00000228       $pdata$__scrt_is_nonwritable_in_current_image 0000000180013228     MSVCRT:utility.obj
 0004:00000234       $pdata$__scrt_is_nonwritable_in_current_image$filt$0 0000000180013234     MSVCRT:utility.obj
 0004:00000240       $pdata$__scrt_acquire_startup_lock 0000000180013240     MSVCRT:utility.obj
 0004:0000024c       $pdata$__scrt_release_startup_lock 000000018001324c     MSVCRT:utility.obj
 0004:00000258       $pdata$__scrt_initialize_crt 0000000180013258     MSVCRT:utility.obj
 0004:00000264       $pdata$__scrt_uninitialize_crt 0000000180013264     MSVCRT:utility.obj
 0004:00000270       $pdata$__scrt_initialize_onexit_tables 0000000180013270     MSVCRT:utility.obj
 0004:0000027c       $pdata$__scrt_dllmain_exception_filter 000000018001327c     MSVCRT:utility.obj
 0004:00000288       $pdata$__scrt_dllmain_before_initialize_c 0000000180013288     MSVCRT:utility.obj
 0004:00000294       $pdata$__scrt_dllmain_after_initialize_c 0000000180013294     MSVCRT:utility.obj
 0004:000002a0       $pdata$__scrt_dllmain_uninitialize_c 00000001800132a0     MSVCRT:utility.obj
 0004:000002ac       $pdata$__scrt_dllmain_uninitialize_critical 00000001800132ac     MSVCRT:utility.obj
 0004:000002b8       $pdata$__scrt_dllmain_crt_thread_attach 00000001800132b8     MSVCRT:utility.obj
 0004:000002c4       $pdata$__scrt_dllmain_crt_thread_detach 00000001800132c4     MSVCRT:utility.obj
 0004:000002d0       $pdata$?configure_argv@__scrt_narrow_argv_policy@@SAHXZ 00000001800132d0     MSVCRT:utility.obj
 0004:000002dc       $pdata$__scrt_get_show_window_mode 00000001800132dc     MSVCRT:utility_desktop.obj
 0004:000002e8       $pdata$__scrt_is_managed_app 00000001800132e8     MSVCRT:utility_desktop.obj
 0004:000002f4       $pdata$__scrt_fastfail     00000001800132f4     MSVCRT:utility_desktop.obj
 0004:00000300       $pdata$__scrt_unhandled_exception_filter 0000000180013300     MSVCRT:utility_desktop.obj
 0004:0000030c       $pdata$_RTC_Initialize     000000018001330c     MSVCRT:_initsect_.obj
 0004:00000318       $pdata$_RTC_Terminate      0000000180013318     MSVCRT:_initsect_.obj
 0004:00000330       $pdata$__isa_available_init 0000000180013330     MSVCRT:_cpu_disp_.obj
 0005:00000300       $R000000                   0000000180014300     PCLaunch.rc.res
 0005:00000430       $R000130                   0000000180014430     PCLaunch.rc.res
 0005:00000588       $R000288                   0000000180014588     PCLaunch.rc.res
 0005:00000680       $R000380                   0000000180014680     PCLaunch.rc.res
 0005:000008f8       $R0005F8                   00000001800148f8     PCLaunch.rc.res
 0005:00000d60       $R000A60                   0000000180014d60     PCLaunch.rc.res
 0005:000016e8       $R0013E8                   00000001800156e8     PCLaunch.rc.res
 0005:00002790       $R002490                   0000000180016790     PCLaunch.rc.res
 0005:000041f8       $R003EF8                   00000001800181f8     PCLaunch.rc.res
 0005:000067a0       $R0064A0                   000000018001a7a0     PCLaunch.rc.res
 0005:0000a9c8       $R00A6C8                   000000018001e9c8     PCLaunch.rc.res
 0005:00011788       $R011488                   0000000180025788     PCLaunch.rc.res
 0005:000117f0       $R0114F0                   00000001800257f0     PCLaunch.rc.res
